(imatplotlib.font_manager
FontManager
p1
(dp2
S'afm_lookup_cache'
p3
(dp4
sS'ttflist'
p5
(lp6
ccopy_reg
_reconstructor
p7
(cmatplotlib.font_manager
FontEntry
p8
c__builtin__
object
p9
NtRp10
(dp11
S'style'
p12
S'normal'
p13
sS'name'
p14
S'STIXSizeTwoSym'
p15
sS'weight'
p16
I400
sS'stretch'
p17
g13
sS'variant'
p18
g13
sS'fname'
p19
S'H:\\pyenvs\\mdf\\lib\\site-packages\\matplotlib-1.0.1.mss.1-py2.6-win-amd64.egg\\matplotlib\\mpl-data\\fonts\\ttf\\STIXSizTwoSymReg.ttf'
p20
sS'size'
p21
S'scalable'
p22
sbag7
(g8
g9
NtRp23
(dp24
g12
g13
sg14
S'cmb10'
p25
sg16
I400
sg17
g13
sg18
g13
sg19
S'H:\\pyenvs\\mdf\\lib\\site-packages\\matplotlib-1.0.1.mss.1-py2.6-win-amd64.egg\\matplotlib\\mpl-data\\fonts\\ttf\\cmb10.ttf'
p26
sg21
g22
sbag7
(g8
g9
NtRp27
(dp28
g12
g13
sg14
S'STIXSizeTwoSym'
p29
sg16
I700
sg17
g13
sg18
g13
sg19
S'H:\\pyenvs\\mdf\\lib\\site-packages\\matplotlib-1.0.1.mss.1-py2.6-win-amd64.egg\\matplotlib\\mpl-data\\fonts\\ttf\\STIXSizTwoSymBol.ttf'
p30
sg21
g22
sbag7
(g8
g9
NtRp31
(dp32
g12
g13
sg14
S'STIXNonUnicode'
p33
sg16
I400
sg17
g13
sg18
g13
sg19
S'H:\\pyenvs\\mdf\\lib\\site-packages\\matplotlib-1.0.1.mss.1-py2.6-win-amd64.egg\\matplotlib\\mpl-data\\fonts\\ttf\\STIXNonUni.ttf'
p34
sg21
g22
sbag7
(g8
g9
NtRp35
(dp36
g12
g13
sg14
S'Bitstream Vera Sans'
p37
sg16
I400
sg17
g13
sg18
g13
sg19
S'H:\\pyenvs\\mdf\\lib\\site-packages\\matplotlib-1.0.1.mss.1-py2.6-win-amd64.egg\\matplotlib\\mpl-data\\fonts\\ttf\\Vera.ttf'
p38
sg21
g22
sbag7
(g8
g9
NtRp39
(dp40
g12
g13
sg14
S'cmss10'
p41
sg16
I400
sg17
g13
sg18
g13
sg19
S'H:\\pyenvs\\mdf\\lib\\site-packages\\matplotlib-1.0.1.mss.1-py2.6-win-amd64.egg\\matplotlib\\mpl-data\\fonts\\ttf\\cmss10.ttf'
p42
sg21
g22
sbag7
(g8
g9
NtRp43
(dp44
g12
g13
sg14
S'STIXNonUnicode'
p45
sg16
I700
sg17
g13
sg18
g13
sg19
S'H:\\pyenvs\\mdf\\lib\\site-packages\\matplotlib-1.0.1.mss.1-py2.6-win-amd64.egg\\matplotlib\\mpl-data\\fonts\\ttf\\STIXNonUniBol.ttf'
p46
sg21
g22
sbag7
(g8
g9
NtRp47
(dp48
g12
S'italic'
p49
sg14
S'STIXGeneral'
p50
sg16
I700
sg17
g13
sg18
g13
sg19
S'H:\\pyenvs\\mdf\\lib\\site-packages\\matplotlib-1.0.1.mss.1-py2.6-win-amd64.egg\\matplotlib\\mpl-data\\fonts\\ttf\\STIXGeneralBolIta.ttf'
p51
sg21
g22
sbag7
(g8
g9
NtRp52
(dp53
g12
g13
sg14
S'STIXSizeThreeSym'
p54
sg16
I400
sg17
g13
sg18
g13
sg19
S'H:\\pyenvs\\mdf\\lib\\site-packages\\matplotlib-1.0.1.mss.1-py2.6-win-amd64.egg\\matplotlib\\mpl-data\\fonts\\ttf\\STIXSizThreeSymReg.ttf'
p55
sg21
g22
sbag7
(g8
g9
NtRp56
(dp57
g12
g13
sg14
S'STIXSizeThreeSym'
p58
sg16
I700
sg17
g13
sg18
g13
sg19
S'H:\\pyenvs\\mdf\\lib\\site-packages\\matplotlib-1.0.1.mss.1-py2.6-win-amd64.egg\\matplotlib\\mpl-data\\fonts\\ttf\\STIXSizThreeSymBol.ttf'
p59
sg21
g22
sbag7
(g8
g9
NtRp60
(dp61
g12
g13
sg14
S'cmsy10'
p62
sg16
I400
sg17
g13
sg18
g13
sg19
S'H:\\pyenvs\\mdf\\lib\\site-packages\\matplotlib-1.0.1.mss.1-py2.6-win-amd64.egg\\matplotlib\\mpl-data\\fonts\\ttf\\cmsy10.ttf'
p63
sg21
g22
sbag7
(g8
g9
NtRp64
(dp65
g12
g13
sg14
S'Bitstream Vera Serif'
p66
sg16
I400
sg17
g13
sg18
g13
sg19
S'H:\\pyenvs\\mdf\\lib\\site-packages\\matplotlib-1.0.1.mss.1-py2.6-win-amd64.egg\\matplotlib\\mpl-data\\fonts\\ttf\\VeraSe.ttf'
p67
sg21
g22
sbag7
(g8
g9
NtRp68
(dp69
g12
g13
sg14
S'STIXSizeFourSym'
p70
sg16
I400
sg17
g13
sg18
g13
sg19
S'H:\\pyenvs\\mdf\\lib\\site-packages\\matplotlib-1.0.1.mss.1-py2.6-win-amd64.egg\\matplotlib\\mpl-data\\fonts\\ttf\\STIXSizFourSymReg.ttf'
p71
sg21
g22
sbag7
(g8
g9
NtRp72
(dp73
g12
g13
sg14
S'STIXSizeOneSym'
p74
sg16
I400
sg17
g13
sg18
g13
sg19
S'H:\\pyenvs\\mdf\\lib\\site-packages\\matplotlib-1.0.1.mss.1-py2.6-win-amd64.egg\\matplotlib\\mpl-data\\fonts\\ttf\\STIXSizOneSymReg.ttf'
p75
sg21
g22
sbag7
(g8
g9
NtRp76
(dp77
g12
g13
sg14
S'STIXGeneral'
p78
sg16
I700
sg17
g13
sg18
g13
sg19
S'H:\\pyenvs\\mdf\\lib\\site-packages\\matplotlib-1.0.1.mss.1-py2.6-win-amd64.egg\\matplotlib\\mpl-data\\fonts\\ttf\\STIXGeneralBol.ttf'
p79
sg21
g22
sbag7
(g8
g9
NtRp80
(dp81
g12
g13
sg14
S'Bitstream Vera Serif'
p82
sg16
I700
sg17
g13
sg18
g13
sg19
S'H:\\pyenvs\\mdf\\lib\\site-packages\\matplotlib-1.0.1.mss.1-py2.6-win-amd64.egg\\matplotlib\\mpl-data\\fonts\\ttf\\VeraSeBd.ttf'
p83
sg21
g22
sbag7
(g8
g9
NtRp84
(dp85
g12
g13
sg14
S'cmtt10'
p86
sg16
I400
sg17
g13
sg18
g13
sg19
S'H:\\pyenvs\\mdf\\lib\\site-packages\\matplotlib-1.0.1.mss.1-py2.6-win-amd64.egg\\matplotlib\\mpl-data\\fonts\\ttf\\cmtt10.ttf'
p87
sg21
g22
sbag7
(g8
g9
NtRp88
(dp89
g12
g13
sg14
S'STIXSizeFiveSym'
p90
sg16
I400
sg17
g13
sg18
g13
sg19
S'H:\\pyenvs\\mdf\\lib\\site-packages\\matplotlib-1.0.1.mss.1-py2.6-win-amd64.egg\\matplotlib\\mpl-data\\fonts\\ttf\\STIXSizFiveSymReg.ttf'
p91
sg21
g22
sbag7
(g8
g9
NtRp92
(dp93
g12
g49
sg14
S'STIXGeneral'
p94
sg16
I400
sg17
g13
sg18
g13
sg19
S'H:\\pyenvs\\mdf\\lib\\site-packages\\matplotlib-1.0.1.mss.1-py2.6-win-amd64.egg\\matplotlib\\mpl-data\\fonts\\ttf\\STIXGeneralItalic.ttf'
p95
sg21
g22
sbag7
(g8
g9
NtRp96
(dp97
g12
g13
sg14
S'cmmi10'
p98
sg16
I400
sg17
g13
sg18
g13
sg19
S'H:\\pyenvs\\mdf\\lib\\site-packages\\matplotlib-1.0.1.mss.1-py2.6-win-amd64.egg\\matplotlib\\mpl-data\\fonts\\ttf\\cmmi10.ttf'
p99
sg21
g22
sbag7
(g8
g9
NtRp100
(dp101
g12
g49
sg14
S'STIXNonUnicode'
p102
sg16
I700
sg17
g13
sg18
g13
sg19
S'H:\\pyenvs\\mdf\\lib\\site-packages\\matplotlib-1.0.1.mss.1-py2.6-win-amd64.egg\\matplotlib\\mpl-data\\fonts\\ttf\\STIXNonUniBolIta.ttf'
p103
sg21
g22
sbag7
(g8
g9
NtRp104
(dp105
g12
g13
sg14
S'Bitstream Vera Sans Mono'
p106
sg16
I700
sg17
g13
sg18
g13
sg19
S'H:\\pyenvs\\mdf\\lib\\site-packages\\matplotlib-1.0.1.mss.1-py2.6-win-amd64.egg\\matplotlib\\mpl-data\\fonts\\ttf\\VeraMoBd.ttf'
p107
sg21
g22
sbag7
(g8
g9
NtRp108
(dp109
g12
g13
sg14
S'Bitstream Vera Sans'
p110
sg16
I700
sg17
g13
sg18
g13
sg19
S'H:\\pyenvs\\mdf\\lib\\site-packages\\matplotlib-1.0.1.mss.1-py2.6-win-amd64.egg\\matplotlib\\mpl-data\\fonts\\ttf\\VeraBd.ttf'
p111
sg21
g22
sbag7
(g8
g9
NtRp112
(dp113
g12
S'oblique'
p114
sg14
S'Bitstream Vera Sans Mono'
p115
sg16
I400
sg17
g13
sg18
g13
sg19
S'H:\\pyenvs\\mdf\\lib\\site-packages\\matplotlib-1.0.1.mss.1-py2.6-win-amd64.egg\\matplotlib\\mpl-data\\fonts\\ttf\\VeraMoIt.ttf'
p116
sg21
g22
sbag7
(g8
g9
NtRp117
(dp118
g12
g13
sg14
S'cmr10'
p119
sg16
I400
sg17
g13
sg18
g13
sg19
S'H:\\pyenvs\\mdf\\lib\\site-packages\\matplotlib-1.0.1.mss.1-py2.6-win-amd64.egg\\matplotlib\\mpl-data\\fonts\\ttf\\cmr10.ttf'
p120
sg21
g22
sbag7
(g8
g9
NtRp121
(dp122
g12
g114
sg14
S'Bitstream Vera Sans'
p123
sg16
I400
sg17
g13
sg18
g13
sg19
S'H:\\pyenvs\\mdf\\lib\\site-packages\\matplotlib-1.0.1.mss.1-py2.6-win-amd64.egg\\matplotlib\\mpl-data\\fonts\\ttf\\VeraIt.ttf'
p124
sg21
g22
sbag7
(g8
g9
NtRp125
(dp126
g12
g13
sg14
S'cmex10'
p127
sg16
I400
sg17
g13
sg18
g13
sg19
S'H:\\pyenvs\\mdf\\lib\\site-packages\\matplotlib-1.0.1.mss.1-py2.6-win-amd64.egg\\matplotlib\\mpl-data\\fonts\\ttf\\cmex10.ttf'
p128
sg21
g22
sbag7
(g8
g9
NtRp129
(dp130
g12
g13
sg14
S'STIXGeneral'
p131
sg16
I400
sg17
g13
sg18
g13
sg19
S'H:\\pyenvs\\mdf\\lib\\site-packages\\matplotlib-1.0.1.mss.1-py2.6-win-amd64.egg\\matplotlib\\mpl-data\\fonts\\ttf\\STIXGeneral.ttf'
p132
sg21
g22
sbag7
(g8
g9
NtRp133
(dp134
g12
g13
sg14
S'STIXSizeFourSym'
p135
sg16
I700
sg17
g13
sg18
g13
sg19
S'H:\\pyenvs\\mdf\\lib\\site-packages\\matplotlib-1.0.1.mss.1-py2.6-win-amd64.egg\\matplotlib\\mpl-data\\fonts\\ttf\\STIXSizFourSymBol.ttf'
p136
sg21
g22
sbag7
(g8
g9
NtRp137
(dp138
g12
g13
sg14
S'Bitstream Vera Sans Mono'
p139
sg16
I400
sg17
g13
sg18
g13
sg19
S'H:\\pyenvs\\mdf\\lib\\site-packages\\matplotlib-1.0.1.mss.1-py2.6-win-amd64.egg\\matplotlib\\mpl-data\\fonts\\ttf\\VeraMono.ttf'
p140
sg21
g22
sbag7
(g8
g9
NtRp141
(dp142
g12
g13
sg14
S'STIXSizeOneSym'
p143
sg16
I700
sg17
g13
sg18
g13
sg19
S'H:\\pyenvs\\mdf\\lib\\site-packages\\matplotlib-1.0.1.mss.1-py2.6-win-amd64.egg\\matplotlib\\mpl-data\\fonts\\ttf\\STIXSizOneSymBol.ttf'
p144
sg21
g22
sbag7
(g8
g9
NtRp145
(dp146
g12
g114
sg14
S'Bitstream Vera Sans Mono'
p147
sg16
I700
sg17
g13
sg18
g13
sg19
S'H:\\pyenvs\\mdf\\lib\\site-packages\\matplotlib-1.0.1.mss.1-py2.6-win-amd64.egg\\matplotlib\\mpl-data\\fonts\\ttf\\VeraMoBI.ttf'
p148
sg21
g22
sbag7
(g8
g9
NtRp149
(dp150
g12
g114
sg14
S'Bitstream Vera Sans'
p151
sg16
I700
sg17
g13
sg18
g13
sg19
S'H:\\pyenvs\\mdf\\lib\\site-packages\\matplotlib-1.0.1.mss.1-py2.6-win-amd64.egg\\matplotlib\\mpl-data\\fonts\\ttf\\VeraBI.ttf'
p152
sg21
g22
sbag7
(g8
g9
NtRp153
(dp154
g12
g49
sg14
S'STIXNonUnicode'
p155
sg16
I400
sg17
g13
sg18
g13
sg19
S'H:\\pyenvs\\mdf\\lib\\site-packages\\matplotlib-1.0.1.mss.1-py2.6-win-amd64.egg\\matplotlib\\mpl-data\\fonts\\ttf\\STIXNonUniIta.ttf'
p156
sg21
g22
sbag7
(g8
g9
NtRp157
(dp158
g12
g13
sg14
S'Optima'
p159
sg16
I400
sg17
g13
sg18
g13
sg19
S'c:\\windows\\fonts\\op______.ttf'
p160
sg21
g22
sbag7
(g8
g9
NtRp161
(dp162
g12
g13
sg14
S'Courier New'
p163
sg16
I400
sg17
g13
sg18
g13
sg19
S'C:\\Windows\\Fonts\\cour.ttf'
p164
sg21
g22
sbag7
(g8
g9
NtRp165
(dp166
g12
g13
sg14
S'Footlight MT Light'
p167
sg16
I200
sg17
g13
sg18
g13
sg19
S'c:\\windows\\fonts\\ftltlt.ttf'
p168
sg21
g22
sbag7
(g8
g9
NtRp169
(dp170
g12
g49
sg14
S'Browallia New'
p171
sg16
I400
sg17
g13
sg18
g13
sg19
S'c:\\windows\\fonts\\browai.ttf'
p172
sg21
g22
sbag7
(g8
g9
NtRp173
(dp174
g12
g13
sg14
S'Stencil'
p175
sg16
I400
sg17
g13
sg18
g13
sg19
S'C:\\Windows\\Fonts\\STENCIL.TTF'
p176
sg21
g22
sbag7
(g8
g9
NtRp177
(dp178
g12
g13
sg14
S'Cambria'
p179
sg16
I700
sg17
g13
sg18
g13
sg19
S'c:\\windows\\fonts\\cambriab.ttf'
p180
sg21
g22
sbag7
(g8
g9
NtRp181
(dp182
g12
g49
sg14
S'Verdana'
p183
sg16
I700
sg17
g13
sg18
g13
sg19
S'C:\\Windows\\Fonts\\verdanaz.ttf'
p184
sg21
g22
sbag7
(g8
g9
NtRp185
(dp186
g12
g49
sg14
S'Palatino Linotype'
p187
sg16
I700
sg17
g13
sg18
g13
sg19
S'C:\\Windows\\Fonts\\palabi.ttf'
p188
sg21
g22
sbag7
(g8
g9
NtRp189
(dp190
g12
g49
sg14
S'JasmineUPC'
p191
sg16
I400
sg17
g13
sg18
g13
sg19
S'c:\\windows\\fonts\\upcji.ttf'
p192
sg21
g22
sbag7
(g8
g9
NtRp193
(dp194
g12
g13
sg14
S'Microsoft Tai Le'
p195
sg16
I700
sg17
g13
sg18
g13
sg19
S'C:\\Windows\\Fonts\\taileb.ttf'
p196
sg21
g22
sbag7
(g8
g9
NtRp197
(dp198
g12
g114
sg14
S'Helvetica Neue LT Std'
p199
sg16
I400
sg17
g13
sg18
g13
sg19
S'c:\\windows\\fonts\\helveticaneueltstd-exo.otf'
p200
sg21
g22
sbag7
(g8
g9
NtRp201
(dp202
g12
g13
sg14
S'Trebuchet MS'
p203
sg16
I700
sg17
g13
sg18
g13
sg19
S'c:\\windows\\fonts\\trebucbd.ttf'
p204
sg21
g22
sbag7
(g8
g9
NtRp205
(dp206
g12
g13
sg14
S'Tahoma'
p207
sg16
I700
sg17
g13
sg18
g13
sg19
S'C:\\Windows\\Fonts\\tahomabd.ttf'
p208
sg21
g22
sbag7
(g8
g9
NtRp209
(dp210
g12
g49
sg14
S'Bell MT'
p211
sg16
I400
sg17
g13
sg18
g13
sg19
S'c:\\windows\\fonts\\belli.ttf'
p212
sg21
g22
sbag7
(g8
g9
NtRp213
(dp214
g12
g49
sg14
S'Bodoni MT'
p215
sg16
I900
sg17
g13
sg18
g13
sg19
S'c:\\windows\\fonts\\bod_blai.ttf'
p216
sg21
g22
sbag7
(g8
g9
NtRp217
(dp218
g12
g13
sg14
S'Copperplate Gothic Bold'
p219
sg16
I700
sg17
g13
sg18
g13
sg19
S'C:\\Windows\\Fonts\\COPRGTB.TTF'
p220
sg21
g22
sbag7
(g8
g9
NtRp221
(dp222
g12
g49
sg14
S'Elephant'
p223
sg16
I400
sg17
g13
sg18
g13
sg19
S'C:\\Windows\\Fonts\\ELEPHNTI.TTF'
p224
sg21
g22
sbag7
(g8
g9
NtRp225
(dp226
g12
g13
sg14
S'BrowalliaUPC'
p227
sg16
I400
sg17
g13
sg18
g13
sg19
S'c:\\windows\\fonts\\browau.ttf'
p228
sg21
g22
sbag7
(g8
g9
NtRp229
(dp230
g12
g13
sg14
S'KaiTi'
p231
sg16
I400
sg17
g13
sg18
g13
sg19
S'c:\\windows\\fonts\\simkai.ttf'
p232
sg21
g22
sbag7
(g8
g9
NtRp233
(dp234
g12
g13
sg14
S'EucrosiaUPC'
p235
sg16
I400
sg17
g13
sg18
g13
sg19
S'c:\\windows\\fonts\\upcel.ttf'
p236
sg21
g22
sbag7
(g8
g9
NtRp237
(dp238
g12
g13
sg14
S'Century Schoolbook'
p239
sg16
I400
sg17
g13
sg18
g13
sg19
S'C:\\Windows\\Fonts\\CENSCBK.TTF'
p240
sg21
g22
sbag7
(g8
g9
NtRp241
(dp242
g12
g13
sg14
S'Franklin Gothic Demi'
p243
sg16
I600
sg17
g13
sg18
g13
sg19
S'c:\\windows\\fonts\\fradm.ttf'
p244
sg21
g22
sbag7
(g8
g9
NtRp245
(dp246
g12
g49
sg14
S'Trebuchet MS'
p247
sg16
I700
sg17
g13
sg18
g13
sg19
S'c:\\windows\\fonts\\trebucbi.ttf'
p248
sg21
g22
sbag7
(g8
g9
NtRp249
(dp250
g12
g13
sg14
S'Helvetica Neue LT Std'
p251
sg16
I800
sg17
g13
sg18
g13
sg19
S'c:\\windows\\fonts\\helveticaneueltstd-hvex.otf'
p252
sg21
g22
sbag7
(g8
g9
NtRp253
(dp254
g12
g13
sg14
S'Helvetica Neue LT Std'
p255
sg16
I400
sg17
S'condensed'
p256
sg18
g13
sg19
S'C:\\Windows\\Fonts\\HelveticaNeueLTStd-Cn.otf'
p257
sg21
g22
sbag7
(g8
g9
NtRp258
(dp259
g12
g114
sg14
S'Helvetica Neue LT Std'
p260
sg16
I200
sg17
g256
sg18
g13
sg19
S'c:\\windows\\fonts\\helveticaneueltstd-ltcno.otf'
p261
sg21
g22
sbag7
(g8
g9
NtRp262
(dp263
g12
g13
sg14
S'Bodoni MT'
p264
sg16
I400
sg17
g256
sg18
g13
sg19
S'c:\\windows\\fonts\\bod_cr.ttf'
p265
sg21
g22
sbag7
(g8
g9
NtRp266
(dp267
g12
g13
sg14
S'Helvetica Neue LT Std'
p268
sg16
I800
sg17
g13
sg18
g13
sg19
S'C:\\Windows\\Fonts\\HelveticaNeueLTStd-Hv.otf'
p269
sg21
g22
sbag7
(g8
g9
NtRp270
(dp271
g12
g49
sg14
S'Bodoni MT'
p272
sg16
I700
sg17
g13
sg18
g13
sg19
S'c:\\windows\\fonts\\bod_bi.ttf'
p273
sg21
g22
sbag7
(g8
g9
NtRp274
(dp275
g12
g49
sg14
S'Gill Sans MT'
p276
sg16
I400
sg17
g13
sg18
g13
sg19
S'c:\\windows\\fonts\\gili____.ttf'
p277
sg21
g22
sbag7
(g8
g9
NtRp278
(dp279
g12
g13
sg14
S'Kunstler Script'
p280
sg16
I400
sg17
g13
sg18
g13
sg19
S'C:\\Windows\\Fonts\\KUNSTLER.TTF'
p281
sg21
g22
sbag7
(g8
g9
NtRp282
(dp283
g12
g49
sg14
S'BrowalliaUPC'
p284
sg16
I700
sg17
g13
sg18
g13
sg19
S'c:\\windows\\fonts\\browauz.ttf'
p285
sg21
g22
sbag7
(g8
g9
NtRp286
(dp287
g12
g13
sg14
S'Malgun Gothic'
p288
sg16
I700
sg17
g13
sg18
g13
sg19
S'C:\\Windows\\Fonts\\malgunbd.ttf'
p289
sg21
g22
sbag7
(g8
g9
NtRp290
(dp291
g12
g13
sg14
S'Imprint MT Shadow'
p292
sg16
I400
sg17
g13
sg18
g13
sg19
S'c:\\windows\\fonts\\imprisha.ttf'
p293
sg21
g22
sbag7
(g8
g9
NtRp294
(dp295
g12
g13
sg14
S'DokChampa'
p296
sg16
I400
sg17
g13
sg18
g13
sg19
S'C:\\Windows\\Fonts\\dokchamp.ttf'
p297
sg21
g22
sbag7
(g8
g9
NtRp298
(dp299
g12
g13
sg14
S'Curlz MT'
p300
sg16
I400
sg17
g13
sg18
g13
sg19
S'C:\\Windows\\Fonts\\CURLZ___.TTF'
p301
sg21
g22
sbag7
(g8
g9
NtRp302
(dp303
g12
g49
sg14
S'Arial'
p304
sg16
I400
sg17
g13
sg18
g13
sg19
S'c:\\windows\\fonts\\ariali.ttf'
p305
sg21
g22
sbag7
(g8
g9
NtRp306
(dp307
g12
g13
sg14
S'Tw Cen MT'
p308
sg16
I400
sg17
g13
sg18
g13
sg19
S'c:\\windows\\fonts\\tcm_____.ttf'
p309
sg21
g22
sbag7
(g8
g9
NtRp310
(dp311
g12
g13
sg14
S'Khmer UI'
p312
sg16
I700
sg17
g13
sg18
g13
sg19
S'c:\\windows\\fonts\\khmeruib.ttf'
p313
sg21
g22
sbag7
(g8
g9
NtRp314
(dp315
g12
g13
sg14
S'Tw Cen MT Condensed'
p316
sg16
I700
sg17
g256
sg18
g13
sg19
S'c:\\windows\\fonts\\tccb____.ttf'
p317
sg21
g22
sbag7
(g8
g9
NtRp318
(dp319
g12
g13
sg14
S'Simplified Arabic'
p320
sg16
I400
sg17
g13
sg18
g13
sg19
S'c:\\windows\\fonts\\simpo.ttf'
p321
sg21
g22
sbag7
(g8
g9
NtRp322
(dp323
g12
g13
sg14
S'Arabic Typesetting'
p324
sg16
I400
sg17
g13
sg18
g13
sg19
S'c:\\windows\\fonts\\arabtype.ttf'
p325
sg21
g22
sbag7
(g8
g9
NtRp326
(dp327
g12
g13
sg14
S'Kartika'
p328
sg16
I700
sg17
g13
sg18
g13
sg19
S'C:\\Windows\\Fonts\\kartikab.ttf'
p329
sg21
g22
sbag7
(g8
g9
NtRp330
(dp331
g12
g13
sg14
S'Khmer UI'
p332
sg16
I400
sg17
g13
sg18
g13
sg19
S'c:\\windows\\fonts\\khmerui.ttf'
p333
sg21
g22
sbag7
(g8
g9
NtRp334
(dp335
g12
g13
sg14
S'Segoe UI'
p336
sg16
I400
sg17
g13
sg18
g13
sg19
S'c:\\windows\\fonts\\seguisb.ttf'
p337
sg21
g22
sbag7
(g8
g9
NtRp338
(dp339
g12
g13
sg14
S'Kalinga'
p340
sg16
I400
sg17
g13
sg18
g13
sg19
S'C:\\Windows\\Fonts\\kalinga.ttf'
p341
sg21
g22
sbag7
(g8
g9
NtRp342
(dp343
g12
g13
sg14
S'Kokila'
p344
sg16
I700
sg17
g13
sg18
g13
sg19
S'C:\\Windows\\Fonts\\kokilab.ttf'
p345
sg21
g22
sbag7
(g8
g9
NtRp346
(dp347
g12
g13
sg14
S'Franklin Gothic Heavy'
p348
sg16
I800
sg17
g13
sg18
g13
sg19
S'C:\\Windows\\Fonts\\FRAHV.TTF'
p349
sg21
g22
sbag7
(g8
g9
NtRp350
(dp351
g12
g13
sg14
S'Cordia New'
p352
sg16
I700
sg17
g13
sg18
g13
sg19
S'C:\\Windows\\Fonts\\cordiab.ttf'
p353
sg21
g22
sbag7
(g8
g9
NtRp354
(dp355
g12
g13
sg14
S'Gautami'
p356
sg16
I700
sg17
g13
sg18
g13
sg19
S'C:\\Windows\\Fonts\\gautamib.ttf'
p357
sg21
g22
sbag7
(g8
g9
NtRp358
(dp359
g12
g13
sg14
S'Euphemia'
p360
sg16
I400
sg17
g13
sg18
g13
sg19
S'C:\\Windows\\Fonts\\euphemia.ttf'
p361
sg21
g22
sbag7
(g8
g9
NtRp362
(dp363
g12
g49
sg14
S'Georgia'
p364
sg16
I400
sg17
g13
sg18
g13
sg19
S'C:\\Windows\\Fonts\\georgiai.ttf'
p365
sg21
g22
sbag7
(g8
g9
NtRp366
(dp367
g12
g13
sg14
S'Leelawadee'
p368
sg16
I700
sg17
g13
sg18
g13
sg19
S'C:\\Windows\\Fonts\\leelawdb.ttf'
p369
sg21
g22
sbag7
(g8
g9
NtRp370
(dp371
g12
g13
sg14
S'Pristina'
p372
sg16
I400
sg17
g13
sg18
g13
sg19
S'c:\\windows\\fonts\\pristina.ttf'
p373
sg21
g22
sbag7
(g8
g9
NtRp374
(dp375
g12
g13
sg14
S'Onyx'
p376
sg16
I400
sg17
g13
sg18
g13
sg19
S'C:\\Windows\\Fonts\\ONYX.TTF'
p377
sg21
g22
sbag7
(g8
g9
NtRp378
(dp379
g12
g13
sg14
S'Baskerville Old Face'
p380
sg16
I400
sg17
g13
sg18
g13
sg19
S'C:\\Windows\\Fonts\\BASKVILL.TTF'
p381
sg21
g22
sbag7
(g8
g9
NtRp382
(dp383
g12
g114
sg14
S'Helvetica Neue LT Std'
p384
sg16
I400
sg17
g13
sg18
g13
sg19
S'c:\\windows\\fonts\\helveticaneueltstd-thexo.otf'
p385
sg21
g22
sbag7
(g8
g9
NtRp386
(dp387
g12
g13
sg14
S'Microsoft Himalaya'
p388
sg16
I400
sg17
g13
sg18
g13
sg19
S'C:\\Windows\\Fonts\\himalaya.ttf'
p389
sg21
g22
sbag7
(g8
g9
NtRp390
(dp391
g12
g13
sg14
S'Helvetica Neue LT Std'
p392
sg16
I200
sg17
g13
sg18
g13
sg19
S'C:\\Windows\\Fonts\\HelveticaNeueLTStd-LtEx.otf'
p393
sg21
g22
sbag7
(g8
g9
NtRp394
(dp395
g12
g13
sg14
S'Calibri'
p396
sg16
I700
sg17
g13
sg18
g13
sg19
S'C:\\Windows\\Fonts\\calibrib.ttf'
p397
sg21
g22
sbag7
(g8
g9
NtRp398
(dp399
g12
g49
sg14
S'Californian FB'
p400
sg16
I400
sg17
g13
sg18
g13
sg19
S'c:\\windows\\fonts\\califi.ttf'
p401
sg21
g22
sbag7
(g8
g9
NtRp402
(dp403
g12
g114
sg14
S'Helvetica Neue LT Std'
p404
sg16
I800
sg17
g256
sg18
g13
sg19
S'c:\\windows\\fonts\\helveticaneueltstd-hvcno.otf'
p405
sg21
g22
sbag7
(g8
g9
NtRp406
(dp407
g12
g13
sg14
S'Consolas'
p408
sg16
I400
sg17
g13
sg18
g13
sg19
S'c:\\windows\\fonts\\consola.ttf'
p409
sg21
g22
sbag7
(g8
g9
NtRp410
(dp411
g12
g13
sg14
S'Arial'
p412
sg16
I700
sg17
g256
sg18
g13
sg19
S'c:\\windows\\fonts\\arialnb.ttf'
p413
sg21
g22
sbag7
(g8
g9
NtRp414
(dp415
g12
g13
sg14
S'Helvetica Neue LT Std'
p416
sg16
I200
sg17
g256
sg18
g13
sg19
S'c:\\windows\\fonts\\helveticaneueltstd-ultltcn.otf'
p417
sg21
g22
sbag7
(g8
g9
NtRp418
(dp419
g12
g13
sg14
S'Helvetica Neue LT Std'
p420
sg16
I700
sg17
g13
sg18
g13
sg19
S'C:\\Windows\\Fonts\\HelveticaNeueLTStd-BdOu.otf'
p421
sg21
g22
sbag7
(g8
g9
NtRp422
(dp423
g12
g49
sg14
S'Angsana New'
p424
sg16
I400
sg17
g13
sg18
g13
sg19
S'C:\\Windows\\Fonts\\angsai.ttf'
p425
sg21
g22
sbag7
(g8
g9
NtRp426
(dp427
g12
g13
sg14
S'FreesiaUPC'
p428
sg16
I700
sg17
g13
sg18
g13
sg19
S'C:\\Windows\\Fonts\\upcfb.ttf'
p429
sg21
g22
sbag7
(g8
g9
NtRp430
(dp431
g12
g13
sg14
S'Arial'
p432
sg16
I700
sg17
g13
sg18
g13
sg19
S'c:\\windows\\fonts\\arialbd.ttf'
p433
sg21
g22
sbag7
(g8
g9
NtRp434
(dp435
g12
g13
sg14
S'Sakkal Majalla'
p436
sg16
I400
sg17
g13
sg18
g13
sg19
S'C:\\Windows\\Fonts\\majalla.ttf'
p437
sg21
g22
sbag7
(g8
g9
NtRp438
(dp439
g12
g13
sg14
S'Helvetica Neue LT Std'
p440
sg16
I700
sg17
g13
sg18
g13
sg19
S'c:\\windows\\fonts\\helveticaneueltstd-bdex.otf'
p441
sg21
g22
sbag7
(g8
g9
NtRp442
(dp443
g12
g13
sg14
S'Microsoft YaHei'
p444
sg16
I400
sg17
g13
sg18
g13
sg19
S'c:\\windows\\fonts\\msyh.ttf'
p445
sg21
g22
sbag7
(g8
g9
NtRp446
(dp447
g12
g13
sg14
S'Tunga'
p448
sg16
I400
sg17
g13
sg18
g13
sg19
S'C:\\Windows\\Fonts\\tunga.ttf'
p449
sg21
g22
sbag7
(g8
g9
NtRp450
(dp451
g12
g49
sg14
S'Helvetica Neue LT Std'
p452
sg16
I900
sg17
g13
sg18
g13
sg19
S'c:\\windows\\fonts\\helveticaneueltstd-blkit.otf'
p453
sg21
g22
sbag7
(g8
g9
NtRp454
(dp455
g12
g13
sg14
S'Lucida Fax'
p456
sg16
I700
sg17
g13
sg18
g13
sg19
S'c:\\windows\\fonts\\lfaxd.ttf'
p457
sg21
g22
sbag7
(g8
g9
NtRp458
(dp459
g12
g49
sg14
S'Cambria'
p460
sg16
I700
sg17
g13
sg18
g13
sg19
S'C:\\Windows\\Fonts\\cambriaz.ttf'
p461
sg21
g22
sbag7
(g8
g9
NtRp462
(dp463
g12
g49
sg14
S'Constantia'
p464
sg16
I700
sg17
g13
sg18
g13
sg19
S'C:\\Windows\\Fonts\\constanz.ttf'
p465
sg21
g22
sbag7
(g8
g9
NtRp466
(dp467
g12
g49
sg14
S'IrisUPC'
p468
sg16
I700
sg17
g13
sg18
g13
sg19
S'C:\\Windows\\Fonts\\upcibi.ttf'
p469
sg21
g22
sbag7
(g8
g9
NtRp470
(dp471
g12
g13
sg14
S'Maiandra GD'
p472
sg16
I400
sg17
g13
sg18
g13
sg19
S'c:\\windows\\fonts\\maian.ttf'
p473
sg21
g22
sbag7
(g8
g9
NtRp474
(dp475
g12
g13
sg14
S'Narkisim'
p476
sg16
I400
sg17
g13
sg18
g13
sg19
S'C:\\Windows\\Fonts\\nrkis.ttf'
p477
sg21
g22
sbag7
(g8
g9
NtRp478
(dp479
g12
g13
sg14
S'Microsoft JhengHei'
p480
sg16
I700
sg17
g13
sg18
g13
sg19
S'c:\\windows\\fonts\\msjhbd.ttf'
p481
sg21
g22
sbag7
(g8
g9
NtRp482
(dp483
g12
g49
sg14
S'Segoe UI'
p484
sg16
I400
sg17
g13
sg18
g13
sg19
S'C:\\Windows\\Fonts\\segoeuii.ttf'
p485
sg21
g22
sbag7
(g8
g9
NtRp486
(dp487
g12
g13
sg14
S'MV Boli'
p488
sg16
I400
sg17
g13
sg18
g13
sg19
S'C:\\Windows\\Fonts\\mvboli.ttf'
p489
sg21
g22
sbag7
(g8
g9
NtRp490
(dp491
g12
g13
sg14
S'KodchiangUPC'
p492
sg16
I400
sg17
g13
sg18
g13
sg19
S'c:\\windows\\fonts\\upckl.ttf'
p493
sg21
g22
sbag7
(g8
g9
NtRp494
(dp495
g12
g13
sg14
S'Levenim MT'
p496
sg16
I700
sg17
g13
sg18
g13
sg19
S'C:\\Windows\\Fonts\\lvnmbd.ttf'
p497
sg21
g22
sbag7
(g8
g9
NtRp498
(dp499
g12
g13
sg14
S'Lucida Sans Typewriter'
p500
sg16
I700
sg17
g13
sg18
g13
sg19
S'C:\\Windows\\Fonts\\LTYPEB.TTF'
p501
sg21
g22
sbag7
(g8
g9
NtRp502
(dp503
g12
g114
sg14
S'Helvetica Neue LT Std'
p504
sg16
I200
sg17
g13
sg18
g13
sg19
S'c:\\windows\\fonts\\helveticaneueltstd-ltexo.otf'
p505
sg21
g22
sbag7
(g8
g9
NtRp506
(dp507
g12
g13
sg14
S'Calisto MT'
p508
sg16
I700
sg17
g13
sg18
g13
sg19
S'C:\\Windows\\Fonts\\CALISTB.TTF'
p509
sg21
g22
sbag7
(g8
g9
NtRp510
(dp511
g12
g13
sg14
S'Helvetica Neue LT Std'
p512
sg16
I400
sg17
g13
sg18
g13
sg19
S'C:\\Windows\\Fonts\\HelveticaNeueLTStd-Ex.otf'
p513
sg21
g22
sbag7
(g8
g9
NtRp514
(dp515
g12
g13
sg14
S'Helvetica Neue LT Std'
p516
sg16
I700
sg17
g13
sg18
g13
sg19
S'C:\\Windows\\Fonts\\HelveticaNeueLTStd-Bd.otf'
p517
sg21
g22
sbag7
(g8
g9
NtRp518
(dp519
g12
g49
sg14
S'Book Antiqua'
p520
sg16
I700
sg17
g13
sg18
g13
sg19
S'c:\\windows\\fonts\\antquabi.ttf'
p521
sg21
g22
sbag7
(g8
g9
NtRp522
(dp523
g12
g49
sg14
S'Tw Cen MT'
p524
sg16
I400
sg17
g13
sg18
g13
sg19
S'C:\\Windows\\Fonts\\TCMI____.TTF'
p525
sg21
g22
sbag7
(g8
g9
NtRp526
(dp527
g12
g49
sg14
S'High Tower Text'
p528
sg16
I400
sg17
g13
sg18
g13
sg19
S'C:\\Windows\\Fonts\\HTOWERTI.TTF'
p529
sg21
g22
sbag7
(g8
g9
NtRp530
(dp531
g12
g13
sg14
S'Lucida Sans'
p532
sg16
I400
sg17
g13
sg18
g13
sg19
S'C:\\Windows\\Fonts\\LSANS.TTF'
p533
sg21
g22
sbag7
(g8
g9
NtRp534
(dp535
g12
g13
sg14
S'Kristen ITC'
p536
sg16
I400
sg17
g13
sg18
g13
sg19
S'C:\\Windows\\Fonts\\ITCKRIST.TTF'
p537
sg21
g22
sbag7
(g8
g9
NtRp538
(dp539
g12
g13
sg14
S'Marlett'
p540
sg16
I400
sg17
g13
sg18
g13
sg19
S'C:\\Windows\\Fonts\\marlett.ttf'
p541
sg21
g22
sbag7
(g8
g9
NtRp542
(dp543
g12
g13
sg14
S'Browallia New'
p544
sg16
I700
sg17
g13
sg18
g13
sg19
S'c:\\windows\\fonts\\browab.ttf'
p545
sg21
g22
sbag7
(g8
g9
NtRp546
(dp547
g12
g13
sg14
S'Corbel'
p548
sg16
I700
sg17
g13
sg18
g13
sg19
S'c:\\windows\\fonts\\corbelb.ttf'
p549
sg21
g22
sbag7
(g8
g9
NtRp550
(dp551
g12
g13
sg14
S'Garamond'
p552
sg16
I400
sg17
g13
sg18
g13
sg19
S'c:\\windows\\fonts\\gara.ttf'
p553
sg21
g22
sbag7
(g8
g9
NtRp554
(dp555
g12
g13
sg14
S'Simplified Arabic'
p556
sg16
I700
sg17
g13
sg18
g13
sg19
S'c:\\windows\\fonts\\simpbdo.ttf'
p557
sg21
g22
sbag7
(g8
g9
NtRp558
(dp559
g12
g13
sg14
S'Franklin Gothic Book'
p560
sg16
I400
sg17
g13
sg18
g13
sg19
S'C:\\Windows\\Fonts\\FRABK.TTF'
p561
sg21
g22
sbag7
(g8
g9
NtRp562
(dp563
g12
g114
sg14
S'Helvetica Neue LT Std'
p564
sg16
I400
sg17
g13
sg18
g13
sg19
S'C:\\Windows\\Fonts\\HelveticaNeueLTStd-ThExO.otf'
p565
sg21
g22
sbag7
(g8
g9
NtRp566
(dp567
g12
g13
sg14
S'Helvetica Neue LT Std'
p568
sg16
I900
sg17
g13
sg18
g13
sg19
S'C:\\Windows\\Fonts\\HelveticaNeueLTStd-BlkEx.otf'
p569
sg21
g22
sbag7
(g8
g9
NtRp570
(dp571
g12
g13
sg14
S'Informal Roman'
p572
sg16
I500
sg17
g13
sg18
g13
sg19
S'c:\\windows\\fonts\\infroman.ttf'
p573
sg21
g22
sbag7
(g8
g9
NtRp574
(dp575
g12
g13
sg14
S'LilyUPC'
p576
sg16
I400
sg17
g13
sg18
g13
sg19
S'C:\\Windows\\Fonts\\upcll.ttf'
p577
sg21
g22
sbag7
(g8
g9
NtRp578
(dp579
g12
g13
sg14
S'Agency FB'
p580
sg16
I700
sg17
g13
sg18
g13
sg19
S'c:\\windows\\fonts\\agencyb.ttf'
p581
sg21
g22
sbag7
(g8
g9
NtRp582
(dp583
g12
g49
sg14
S'FreesiaUPC'
p584
sg16
I700
sg17
g13
sg18
g13
sg19
S'C:\\Windows\\Fonts\\upcfbi.ttf'
p585
sg21
g22
sbag7
(g8
g9
NtRp586
(dp587
g12
g13
sg14
S'Arial Rounded MT Bold'
p588
sg16
I700
sg17
g13
sg18
g13
sg19
S'C:\\Windows\\Fonts\\ARLRDBD.TTF'
p589
sg21
g22
sbag7
(g8
g9
NtRp590
(dp591
g12
g13
sg14
S'Cooper Black'
p592
sg16
I900
sg17
g13
sg18
g13
sg19
S'c:\\windows\\fonts\\coopbl.ttf'
p593
sg21
g22
sbag7
(g8
g9
NtRp594
(dp595
g12
g114
sg14
S'Lucida Sans Typewriter'
p596
sg16
I700
sg17
g13
sg18
g13
sg19
S'c:\\windows\\fonts\\ltypebo.ttf'
p597
sg21
g22
sbag7
(g8
g9
NtRp598
(dp599
g12
g13
sg14
S'Vrinda'
p600
sg16
I700
sg17
g13
sg18
g13
sg19
S'C:\\Windows\\Fonts\\vrindab.ttf'
p601
sg21
g22
sbag7
(g8
g9
NtRp602
(dp603
g12
g13
sg14
S'Kalinga'
p604
sg16
I700
sg17
g13
sg18
g13
sg19
S'C:\\Windows\\Fonts\\kalingab.ttf'
p605
sg21
g22
sbag7
(g8
g9
NtRp606
(dp607
g12
g49
sg14
S'Calibri'
p608
sg16
I400
sg17
g13
sg18
g13
sg19
S'C:\\Windows\\Fonts\\calibrii.ttf'
p609
sg21
g22
sbag7
(g8
g9
NtRp610
(dp611
g12
g49
sg14
S'Franklin Gothic Medium'
p612
sg16
I500
sg17
g13
sg18
g13
sg19
S'C:\\Windows\\Fonts\\framdit.ttf'
p613
sg21
g22
sbag7
(g8
g9
NtRp614
(dp615
g12
g13
sg14
S'Segoe UI'
p616
sg16
I400
sg17
g13
sg18
g13
sg19
S'C:\\Windows\\Fonts\\segoeui.ttf'
p617
sg21
g22
sbag7
(g8
g9
NtRp618
(dp619
g12
g49
sg14
S'Utsaah'
p620
sg16
I400
sg17
g13
sg18
g13
sg19
S'c:\\windows\\fonts\\utsaahi.ttf'
p621
sg21
g22
sbag7
(g8
g9
NtRp622
(dp623
g12
g13
sg14
S'Modern No. 20'
p624
sg16
I400
sg17
g13
sg18
g13
sg19
S'c:\\windows\\fonts\\mod20.ttf'
p625
sg21
g22
sbag7
(g8
g9
NtRp626
(dp627
g12
g49
sg14
S'DilleniaUPC'
p628
sg16
I400
sg17
g13
sg18
g13
sg19
S'c:\\windows\\fonts\\upcdi.ttf'
p629
sg21
g22
sbag7
(g8
g9
NtRp630
(dp631
g12
g13
sg14
S'DFKai-SB'
p632
sg16
I400
sg17
g13
sg18
g13
sg19
S'C:\\Windows\\Fonts\\kaiu.ttf'
p633
sg21
g22
sbag7
(g8
g9
NtRp634
(dp635
g12
g13
sg14
S'OCR A Extended'
p636
sg16
I400
sg17
g13
sg18
g13
sg19
S'c:\\windows\\fonts\\ocraext.ttf'
p637
sg21
g22
sbag7
(g8
g9
NtRp638
(dp639
g12
g49
sg14
S'AngsanaUPC'
p640
sg16
I700
sg17
g13
sg18
g13
sg19
S'c:\\windows\\fonts\\angsauz.ttf'
p641
sg21
g22
sbag7
(g8
g9
NtRp642
(dp643
g12
g13
sg14
S'Shonar Bangla'
p644
sg16
I400
sg17
g13
sg18
g13
sg19
S'c:\\windows\\fonts\\shonar.ttf'
p645
sg21
g22
sbag7
(g8
g9
NtRp646
(dp647
g12
g13
sg14
S'Helvetica Neue LT Std'
p648
sg16
I900
sg17
g13
sg18
g13
sg19
S'c:\\windows\\fonts\\helveticaneueltstd-blkex.otf'
p649
sg21
g22
sbag7
(g8
g9
NtRp650
(dp651
g12
g13
sg14
S'Goudy Old Style'
p652
sg16
I700
sg17
g13
sg18
g13
sg19
S'C:\\Windows\\Fonts\\GOUDOSB.TTF'
p653
sg21
g22
sbag7
(g8
g9
NtRp654
(dp655
g12
g49
sg14
S'Lucida Sans'
p656
sg16
I400
sg17
g13
sg18
g13
sg19
S'c:\\windows\\fonts\\lsansi.ttf'
p657
sg21
g22
sbag7
(g8
g9
NtRp658
(dp659
g12
g49
sg14
S'KodchiangUPC'
p660
sg16
I400
sg17
g13
sg18
g13
sg19
S'C:\\Windows\\Fonts\\upcki.ttf'
p661
sg21
g22
sbag7
(g8
g9
NtRp662
(dp663
g12
g13
sg14
S'Utsaah'
p664
sg16
I700
sg17
g13
sg18
g13
sg19
S'C:\\Windows\\Fonts\\utsaahb.ttf'
p665
sg21
g22
sbag7
(g8
g9
NtRp666
(dp667
g12
g13
sg14
S'Eras Medium ITC'
p668
sg16
I500
sg17
g13
sg18
g13
sg19
S'c:\\windows\\fonts\\erasmd.ttf'
p669
sg21
g22
sbag7
(g8
g9
NtRp670
(dp671
g12
g49
sg14
S'Verdana'
p672
sg16
I400
sg17
g13
sg18
g13
sg19
S'c:\\windows\\fonts\\verdanai.ttf'
p673
sg21
g22
sbag7
(g8
g9
NtRp674
(dp675
g12
g13
sg14
S'Jokerman'
p676
sg16
I400
sg17
g13
sg18
g13
sg19
S'C:\\Windows\\Fonts\\JOKERMAN.TTF'
p677
sg21
g22
sbag7
(g8
g9
NtRp678
(dp679
g12
g13
sg14
S'Constantia'
p680
sg16
I700
sg17
g13
sg18
g13
sg19
S'C:\\Windows\\Fonts\\constanb.ttf'
p681
sg21
g22
sbag7
(g8
g9
NtRp682
(dp683
g12
g49
sg14
S'Franklin Gothic Demi'
p684
sg16
I600
sg17
g13
sg18
g13
sg19
S'c:\\windows\\fonts\\fradmit.ttf'
p685
sg21
g22
sbag7
(g8
g9
NtRp686
(dp687
g12
g13
sg14
S'Wingdings 2'
p688
sg16
I400
sg17
g13
sg18
g13
sg19
S'C:\\Windows\\Fonts\\WINGDNG2.TTF'
p689
sg21
g22
sbag7
(g8
g9
NtRp690
(dp691
g12
g13
sg14
S'Utsaah'
p692
sg16
I400
sg17
g13
sg18
g13
sg19
S'c:\\windows\\fonts\\utsaah.ttf'
p693
sg21
g22
sbag7
(g8
g9
NtRp694
(dp695
g12
g13
sg14
S'Microsoft YaHei'
p696
sg16
I700
sg17
g13
sg18
g13
sg19
S'c:\\windows\\fonts\\msyhbd.ttf'
p697
sg21
g22
sbag7
(g8
g9
NtRp698
(dp699
g12
g13
sg14
S'Symbol'
p700
sg16
I400
sg17
g13
sg18
g13
sg19
S'c:\\windows\\fonts\\symbol.ttf'
p701
sg21
g22
sbag7
(g8
g9
NtRp702
(dp703
g12
g49
sg14
S'Bodoni MT'
p704
sg16
I900
sg17
g13
sg18
g13
sg19
S'C:\\Windows\\Fonts\\BOD_BLAI.TTF'
p705
sg21
g22
sbag7
(g8
g9
NtRp706
(dp707
g12
g49
sg14
S'Lucida Bright'
p708
sg16
I400
sg17
g13
sg18
g13
sg19
S'C:\\Windows\\Fonts\\LBRITEI.TTF'
p709
sg21
g22
sbag7
(g8
g9
NtRp710
(dp711
g12
g13
sg14
S'Sylfaen'
p712
sg16
I400
sg17
g13
sg18
g13
sg19
S'c:\\windows\\fonts\\sylfaen.ttf'
p713
sg21
g22
sbag7
(g8
g9
NtRp714
(dp715
g12
g49
sg14
S'Helvetica Neue LT Std'
p716
sg16
I400
sg17
g13
sg18
g13
sg19
S'C:\\Windows\\Fonts\\HelveticaNeueLTStd-ThIt.otf'
p717
sg21
g22
sbag7
(g8
g9
NtRp718
(dp719
g12
g13
sg14
S'Rockwell Condensed'
p720
sg16
I700
sg17
g256
sg18
g13
sg19
S'c:\\windows\\fonts\\roccb___.ttf'
p721
sg21
g22
sbag7
(g8
g9
NtRp722
(dp723
g12
g13
sg14
S'Lucida Sans'
p724
sg16
I700
sg17
g13
sg18
g13
sg19
S'C:\\Windows\\Fonts\\LSANSD.TTF'
p725
sg21
g22
sbag7
(g8
g9
NtRp726
(dp727
g12
g49
sg14
S'Calibri'
p728
sg16
I700
sg17
g13
sg18
g13
sg19
S'C:\\Windows\\Fonts\\calibriz.ttf'
p729
sg21
g22
sbag7
(g8
g9
NtRp730
(dp731
g12
g13
sg14
S'Aharoni'
p732
sg16
I700
sg17
g13
sg18
g13
sg19
S'c:\\windows\\fonts\\ahronbd.ttf'
p733
sg21
g22
sbag7
(g8
g9
NtRp734
(dp735
g12
g13
sg14
S'Helvetica Neue LT Std'
p736
sg16
I200
sg17
g13
sg18
g13
sg19
S'c:\\windows\\fonts\\helveticaneueltstd-ultlt.otf'
p737
sg21
g22
sbag7
(g8
g9
NtRp738
(dp739
g12
g49
sg14
S'JasmineUPC'
p740
sg16
I700
sg17
g13
sg18
g13
sg19
S'C:\\Windows\\Fonts\\upcjbi.ttf'
p741
sg21
g22
sbag7
(g8
g9
NtRp742
(dp743
g12
g13
sg14
S'Eras Medium ITC'
p744
sg16
I500
sg17
g13
sg18
g13
sg19
S'C:\\Windows\\Fonts\\ERASMD.TTF'
p745
sg21
g22
sbag7
(g8
g9
NtRp746
(dp747
g12
g49
sg14
S'Century Schoolbook'
p748
sg16
I400
sg17
g13
sg18
g13
sg19
S'c:\\windows\\fonts\\schlbki.ttf'
p749
sg21
g22
sbag7
(g8
g9
NtRp750
(dp751
g12
g49
sg14
S'Segoe UI'
p752
sg16
I700
sg17
g13
sg18
g13
sg19
S'c:\\windows\\fonts\\segoeuiz.ttf'
p753
sg21
g22
sbag7
(g8
g9
NtRp754
(dp755
g12
g13
sg14
S'Book Antiqua'
p756
sg16
I400
sg17
g13
sg18
g13
sg19
S'C:\\Windows\\Fonts\\BKANT.TTF'
p757
sg21
g22
sbag7
(g8
g9
NtRp758
(dp759
g12
g13
sg14
S'Helvetica Neue LT Std'
p760
sg16
I200
sg17
g256
sg18
g13
sg19
S'C:\\Windows\\Fonts\\HelveticaNeueLTStd-UltLtCn.otf'
p761
sg21
g22
sbag7
(g8
g9
NtRp762
(dp763
g12
g13
sg14
S'Angsana New'
p764
sg16
I700
sg17
g13
sg18
g13
sg19
S'C:\\Windows\\Fonts\\angsab.ttf'
p765
sg21
g22
sbag7
(g8
g9
NtRp766
(dp767
g12
g13
sg14
S'LilyUPC'
p768
sg16
I700
sg17
g13
sg18
g13
sg19
S'c:\\windows\\fonts\\upclb.ttf'
p769
sg21
g22
sbag7
(g8
g9
NtRp770
(dp771
g12
g13
sg14
S'Arial'
p772
sg16
I400
sg17
g256
sg18
g13
sg19
S'C:\\Windows\\Fonts\\ARIALN.TTF'
p773
sg21
g22
sbag7
(g8
g9
NtRp774
(dp775
g12
g49
sg14
S'AngsanaUPC'
p776
sg16
I400
sg17
g13
sg18
g13
sg19
S'c:\\windows\\fonts\\angsaui.ttf'
p777
sg21
g22
sbag7
(g8
g9
NtRp778
(dp779
g12
g13
sg14
S'Franklin Gothic Demi Cond'
p780
sg16
I600
sg17
g256
sg18
g13
sg19
S'C:\\Windows\\Fonts\\FRADMCN.TTF'
p781
sg21
g22
sbag7
(g8
g9
NtRp782
(dp783
g12
g114
sg14
S'Helvetica Neue LT Std'
p784
sg16
I800
sg17
g13
sg18
g13
sg19
S'c:\\windows\\fonts\\helveticaneueltstd-hvexo.otf'
p785
sg21
g22
sbag7
(g8
g9
NtRp786
(dp787
g12
g49
sg14
S'Book Antiqua'
p788
sg16
I700
sg17
g13
sg18
g13
sg19
S'C:\\Windows\\Fonts\\ANTQUABI.TTF'
p789
sg21
g22
sbag7
(g8
g9
NtRp790
(dp791
g12
g13
sg14
S'Microsoft Tai Le'
p792
sg16
I400
sg17
g13
sg18
g13
sg19
S'C:\\Windows\\Fonts\\taile.ttf'
p793
sg21
g22
sbag7
(g8
g9
NtRp794
(dp795
g12
g49
sg14
S'Helvetica Neue LT Std'
p796
sg16
I400
sg17
g13
sg18
g13
sg19
S'C:\\Windows\\Fonts\\HelveticaNeueLTStd-It.otf'
p797
sg21
g22
sbag7
(g8
g9
NtRp798
(dp799
g12
g49
sg14
S'Century Schoolbook'
p800
sg16
I700
sg17
g13
sg18
g13
sg19
S'C:\\Windows\\Fonts\\SCHLBKBI.TTF'
p801
sg21
g22
sbag7
(g8
g9
NtRp802
(dp803
g12
g13
sg14
S'Bernard MT Condensed'
p804
sg16
I400
sg17
g256
sg18
g13
sg19
S'C:\\Windows\\Fonts\\BERNHC.TTF'
p805
sg21
g22
sbag7
(g8
g9
NtRp806
(dp807
g12
g49
sg14
S'EucrosiaUPC'
p808
sg16
I700
sg17
g13
sg18
g13
sg19
S'C:\\Windows\\Fonts\\upcebi.ttf'
p809
sg21
g22
sbag7
(g8
g9
NtRp810
(dp811
g12
g49
sg14
S'Bookman Old Style'
p812
sg16
I400
sg17
g13
sg18
g13
sg19
S'c:\\windows\\fonts\\bookosi.ttf'
p813
sg21
g22
sbag7
(g8
g9
NtRp814
(dp815
g12
g13
sg14
S'Lucida Fax'
p816
sg16
I700
sg17
g13
sg18
g13
sg19
S'C:\\Windows\\Fonts\\LFAXD.TTF'
p817
sg21
g22
sbag7
(g8
g9
NtRp818
(dp819
g12
g13
sg14
S'Gloucester MT Extra Condensed'
p820
sg16
I400
sg17
g256
sg18
g13
sg19
S'c:\\windows\\fonts\\glecb.ttf'
p821
sg21
g22
sbag7
(g8
g9
NtRp822
(dp823
g12
g13
sg14
S'Monotype Corsiva'
p824
sg16
I400
sg17
g13
sg18
g13
sg19
S'c:\\windows\\fonts\\mtcorsva.ttf'
p825
sg21
g22
sbag7
(g8
g9
NtRp826
(dp827
g12
g13
sg14
S'Chiller'
p828
sg16
I400
sg17
g13
sg18
g13
sg19
S'C:\\Windows\\Fonts\\CHILLER.TTF'
p829
sg21
g22
sbag7
(g8
g9
NtRp830
(dp831
g12
g13
sg14
S'Gill Sans Ultra Bold Condensed'
p832
sg16
I700
sg17
g256
sg18
g13
sg19
S'C:\\Windows\\Fonts\\GILLUBCD.TTF'
p833
sg21
g22
sbag7
(g8
g9
NtRp834
(dp835
g12
g49
sg14
S'FreesiaUPC'
p836
sg16
I400
sg17
g13
sg18
g13
sg19
S'c:\\windows\\fonts\\upcfi.ttf'
p837
sg21
g22
sbag7
(g8
g9
NtRp838
(dp839
g12
g13
sg14
S'Franklin Gothic Medium'
p840
sg16
I500
sg17
g13
sg18
g13
sg19
S'C:\\Windows\\Fonts\\framd.ttf'
p841
sg21
g22
sbag7
(g8
g9
NtRp842
(dp843
g12
g49
sg14
S'Lucida Sans'
p844
sg16
I400
sg17
g13
sg18
g13
sg19
S'C:\\Windows\\Fonts\\LSANSI.TTF'
p845
sg21
g22
sbag7
(g8
g9
NtRp846
(dp847
g12
g49
sg14
S'KodchiangUPC'
p848
sg16
I700
sg17
g13
sg18
g13
sg19
S'C:\\Windows\\Fonts\\upckbi.ttf'
p849
sg21
g22
sbag7
(g8
g9
NtRp850
(dp851
g12
g13
sg14
S'Calibri'
p852
sg16
I400
sg17
g13
sg18
g13
sg19
S'c:\\windows\\fonts\\calibri.ttf'
p853
sg21
g22
sbag7
(g8
g9
NtRp854
(dp855
g12
g13
sg14
S'Felix Titling'
p856
sg16
I400
sg17
g13
sg18
g13
sg19
S'C:\\Windows\\Fonts\\FELIXTI.TTF'
p857
sg21
g22
sbag7
(g8
g9
NtRp858
(dp859
g12
g13
sg14
S'Vladimir Script'
p860
sg16
I400
sg17
g13
sg18
g13
sg19
S'C:\\Windows\\Fonts\\VLADIMIR.TTF'
p861
sg21
g22
sbag7
(g8
g9
NtRp862
(dp863
g12
g13
sg14
S'Impact'
p864
sg16
I400
sg17
g13
sg18
g13
sg19
S'C:\\Windows\\Fonts\\impact.ttf'
p865
sg21
g22
sbag7
(g8
g9
NtRp866
(dp867
g12
g13
sg14
S'Centaur'
p868
sg16
I400
sg17
g13
sg18
g13
sg19
S'c:\\windows\\fonts\\centaur.ttf'
p869
sg21
g22
sbag7
(g8
g9
NtRp870
(dp871
g12
g13
sg14
S'IrisUPC'
p872
sg16
I400
sg17
g13
sg18
g13
sg19
S'c:\\windows\\fonts\\upcil.ttf'
p873
sg21
g22
sbag7
(g8
g9
NtRp874
(dp875
g12
g13
sg14
S'Broadway'
p876
sg16
I400
sg17
g13
sg18
g13
sg19
S'C:\\Windows\\Fonts\\BROADW.TTF'
p877
sg21
g22
sbag7
(g8
g9
NtRp878
(dp879
g12
g13
sg14
S'Colonna MT'
p880
sg16
I400
sg17
g13
sg18
g13
sg19
S'C:\\Windows\\Fonts\\COLONNA.TTF'
p881
sg21
g22
sbag7
(g8
g9
NtRp882
(dp883
g12
g13
sg14
S'Gill Sans MT'
p884
sg16
I700
sg17
g13
sg18
g13
sg19
S'C:\\Windows\\Fonts\\GILB____.TTF'
p885
sg21
g22
sbag7
(g8
g9
NtRp886
(dp887
g12
g13
sg14
S'Wingdings'
p888
sg16
I400
sg17
g13
sg18
g13
sg19
S'C:\\Windows\\Fonts\\wingding.ttf'
p889
sg21
g22
sbag7
(g8
g9
NtRp890
(dp891
g12
g49
sg14
S'Calisto MT'
p892
sg16
I400
sg17
g13
sg18
g13
sg19
S'C:\\Windows\\Fonts\\CALISTI.TTF'
p893
sg21
g22
sbag7
(g8
g9
NtRp894
(dp895
g12
g13
sg14
S'Latha'
p896
sg16
I400
sg17
g13
sg18
g13
sg19
S'c:\\windows\\fonts\\latha.ttf'
p897
sg21
g22
sbag7
(g8
g9
NtRp898
(dp899
g12
g13
sg14
S'Lucida Console'
p900
sg16
I400
sg17
g13
sg18
g13
sg19
S'c:\\windows\\fonts\\lucon.ttf'
p901
sg21
g22
sbag7
(g8
g9
NtRp902
(dp903
g12
g13
sg14
S'Mangal'
p904
sg16
I700
sg17
g13
sg18
g13
sg19
S'C:\\Windows\\Fonts\\mangalb.ttf'
p905
sg21
g22
sbag7
(g8
g9
NtRp906
(dp907
g12
g13
sg14
S'Kartika'
p908
sg16
I400
sg17
g13
sg18
g13
sg19
S'C:\\Windows\\Fonts\\kartika.ttf'
p909
sg21
g22
sbag7
(g8
g9
NtRp910
(dp911
g12
g13
sg14
S'Vani'
p912
sg16
I400
sg17
g13
sg18
g13
sg19
S'c:\\windows\\fonts\\vani.ttf'
p913
sg21
g22
sbag7
(g8
g9
NtRp914
(dp915
g12
g13
sg14
S'Arial Rounded MT Bold'
p916
sg16
I700
sg17
g13
sg18
g13
sg19
S'c:\\windows\\fonts\\arlrdbd.ttf'
p917
sg21
g22
sbag7
(g8
g9
NtRp918
(dp919
g12
g13
sg14
S'DilleniaUPC'
p920
sg16
I400
sg17
g13
sg18
g13
sg19
S'c:\\windows\\fonts\\upcdl.ttf'
p921
sg21
g22
sbag7
(g8
g9
NtRp922
(dp923
g12
g49
sg14
S'Calisto MT'
p924
sg16
I700
sg17
g13
sg18
g13
sg19
S'C:\\Windows\\Fonts\\CALISTBI.TTF'
p925
sg21
g22
sbag7
(g8
g9
NtRp926
(dp927
g12
g13
sg14
S'Bernard MT Condensed'
p928
sg16
I400
sg17
g256
sg18
g13
sg19
S'c:\\windows\\fonts\\bernhc.ttf'
p929
sg21
g22
sbag7
(g8
g9
NtRp930
(dp931
g12
g13
sg14
S'Lucida Sans Unicode'
p932
sg16
I400
sg17
g13
sg18
g13
sg19
S'C:\\Windows\\Fonts\\l_10646.ttf'
p933
sg21
g22
sbag7
(g8
g9
NtRp934
(dp935
g12
g13
sg14
S'Castellar'
p936
sg16
I400
sg17
g13
sg18
g13
sg19
S'c:\\windows\\fonts\\castelar.ttf'
p937
sg21
g22
sbag7
(g8
g9
NtRp938
(dp939
g12
g13
sg14
S'Magneto'
p940
sg16
I700
sg17
g13
sg18
g13
sg19
S'c:\\windows\\fonts\\magnetob.ttf'
p941
sg21
g22
sbag7
(g8
g9
NtRp942
(dp943
g12
g13
sg14
S'Script MT Bold'
p944
sg16
I700
sg17
g13
sg18
g13
sg19
S'C:\\Windows\\Fonts\\SCRIPTBL.TTF'
p945
sg21
g22
sbag7
(g8
g9
NtRp946
(dp947
g12
g13
sg14
S'Berlin Sans FB Demi'
p948
sg16
I700
sg17
g13
sg18
g13
sg19
S'C:\\Windows\\Fonts\\BRLNSDB.TTF'
p949
sg21
g22
sbag7
(g8
g9
NtRp950
(dp951
g12
g13
sg14
S'Helvetica Neue LT Std'
p952
sg16
I700
sg17
g256
sg18
g13
sg19
S'c:\\windows\\fonts\\helveticaneueltstd-bdcn.otf'
p953
sg21
g22
sbag7
(g8
g9
NtRp954
(dp955
g12
g13
sg14
S'Arial Unicode MS'
p956
sg16
I400
sg17
g13
sg18
g13
sg19
S'c:\\windows\\fonts\\arialuni.ttf'
p957
sg21
g22
sbag7
(g8
g9
NtRp958
(dp959
g12
g49
sg14
S'Aparajita'
p960
sg16
I700
sg17
g13
sg18
g13
sg19
S'c:\\windows\\fonts\\aparajbi.ttf'
p961
sg21
g22
sbag7
(g8
g9
NtRp962
(dp963
g12
g13
sg14
S'Helvetica Neue LT Std'
p964
sg16
I800
sg17
g256
sg18
g13
sg19
S'C:\\Windows\\Fonts\\HelveticaNeueLTStd-HvCn.otf'
p965
sg21
g22
sbag7
(g8
g9
NtRp966
(dp967
g12
g13
sg14
S'Ebrima'
p968
sg16
I700
sg17
g13
sg18
g13
sg19
S'c:\\windows\\fonts\\ebrimabd.ttf'
p969
sg21
g22
sbag7
(g8
g9
NtRp970
(dp971
g12
g13
sg14
S'Segoe Print'
p972
sg16
I400
sg17
g13
sg18
g13
sg19
S'C:\\Windows\\Fonts\\segoepr.ttf'
p973
sg21
g22
sbag7
(g8
g9
NtRp974
(dp975
g12
g13
sg14
S'Microsoft Sans Serif'
p976
sg16
I400
sg17
g13
sg18
g13
sg19
S'C:\\Windows\\Fonts\\micross.ttf'
p977
sg21
g22
sbag7
(g8
g9
NtRp978
(dp979
g12
g13
sg14
S'Gill Sans Ultra Bold Condensed'
p980
sg16
I700
sg17
g256
sg18
g13
sg19
S'c:\\windows\\fonts\\gillubcd.ttf'
p981
sg21
g22
sbag7
(g8
g9
NtRp982
(dp983
g12
g13
sg14
S'Wingdings 3'
p984
sg16
I400
sg17
g13
sg18
g13
sg19
S'C:\\Windows\\Fonts\\WINGDNG3.TTF'
p985
sg21
g22
sbag7
(g8
g9
NtRp986
(dp987
g12
g49
sg14
S'Kokila'
p988
sg16
I700
sg17
g13
sg18
g13
sg19
S'C:\\Windows\\Fonts\\kokilabi.ttf'
p989
sg21
g22
sbag7
(g8
g9
NtRp990
(dp991
g12
g49
sg14
S'Gill Sans MT'
p992
sg16
I700
sg17
g13
sg18
g13
sg19
S'C:\\Windows\\Fonts\\GILBI___.TTF'
p993
sg21
g22
sbag7
(g8
g9
NtRp994
(dp995
g12
g13
sg14
S'Palace Script MT'
p996
sg16
I400
sg17
g13
sg18
g13
sg19
S'C:\\Windows\\Fonts\\PALSCRI.TTF'
p997
sg21
g22
sbag7
(g8
g9
NtRp998
(dp999
g12
g13
sg14
S'Segoe Print'
p1000
sg16
I700
sg17
g13
sg18
g13
sg19
S'C:\\Windows\\Fonts\\segoeprb.ttf'
p1001
sg21
g22
sbag7
(g8
g9
NtRp1002
(dp1003
g12
g49
sg14
S'Helvetica Neue LT Std'
p1004
sg16
I200
sg17
g13
sg18
g13
sg19
S'C:\\Windows\\Fonts\\HelveticaNeueLTStd-UltLtIt.otf'
p1005
sg21
g22
sbag7
(g8
g9
NtRp1006
(dp1007
g12
g13
sg14
S'FreesiaUPC'
p1008
sg16
I400
sg17
g13
sg18
g13
sg19
S'C:\\Windows\\Fonts\\upcfl.ttf'
p1009
sg21
g22
sbag7
(g8
g9
NtRp1010
(dp1011
g12
g49
sg14
S'Perpetua'
p1012
sg16
I400
sg17
g13
sg18
g13
sg19
S'c:\\windows\\fonts\\peri____.ttf'
p1013
sg21
g22
sbag7
(g8
g9
NtRp1014
(dp1015
g12
g13
sg14
S'Miriam Fixed'
p1016
sg16
I400
sg17
g13
sg18
g13
sg19
S'c:\\windows\\fonts\\mriamc.ttf'
p1017
sg21
g22
sbag7
(g8
g9
NtRp1018
(dp1019
g12
g49
sg14
S'IrisUPC'
p1020
sg16
I400
sg17
g13
sg18
g13
sg19
S'c:\\windows\\fonts\\upcii.ttf'
p1021
sg21
g22
sbag7
(g8
g9
NtRp1022
(dp1023
g12
g13
sg14
S'Copperplate Gothic Light'
p1024
sg16
I200
sg17
g13
sg18
g13
sg19
S'c:\\windows\\fonts\\coprgtl.ttf'
p1025
sg21
g22
sbag7
(g8
g9
NtRp1026
(dp1027
g12
g49
sg14
S'Tw Cen MT'
p1028
sg16
I400
sg17
g13
sg18
g13
sg19
S'c:\\windows\\fonts\\tcmi____.ttf'
p1029
sg21
g22
sbag7
(g8
g9
NtRp1030
(dp1031
g12
g49
sg14
S'Cordia New'
p1032
sg16
I700
sg17
g13
sg18
g13
sg19
S'C:\\Windows\\Fonts\\cordiaz.ttf'
p1033
sg21
g22
sbag7
(g8
g9
NtRp1034
(dp1035
g12
g13
sg14
S'Times New Roman'
p1036
sg16
I500
sg17
g13
sg18
g13
sg19
S'c:\\windows\\fonts\\times.ttf'
p1037
sg21
g22
sbag7
(g8
g9
NtRp1038
(dp1039
g12
g13
sg14
S'Wingdings 2'
p1040
sg16
I400
sg17
g13
sg18
g13
sg19
S'c:\\windows\\fonts\\wingdng2.ttf'
p1041
sg21
g22
sbag7
(g8
g9
NtRp1042
(dp1043
g12
g13
sg14
S'Consolas'
p1044
sg16
I700
sg17
g13
sg18
g13
sg19
S'c:\\windows\\fonts\\consolab.ttf'
p1045
sg21
g22
sbag7
(g8
g9
NtRp1046
(dp1047
g12
g13
sg14
S'Vijaya'
p1048
sg16
I700
sg17
g13
sg18
g13
sg19
S'c:\\windows\\fonts\\vijayab.ttf'
p1049
sg21
g22
sbag7
(g8
g9
NtRp1050
(dp1051
g12
g49
sg14
S'Courier New'
p1052
sg16
I400
sg17
g13
sg18
g13
sg19
S'c:\\windows\\fonts\\couri.ttf'
p1053
sg21
g22
sbag7
(g8
g9
NtRp1054
(dp1055
g12
g13
sg14
S'Shruti'
p1056
sg16
I700
sg17
g13
sg18
g13
sg19
S'C:\\Windows\\Fonts\\shrutib.ttf'
p1057
sg21
g22
sbag7
(g8
g9
NtRp1058
(dp1059
g12
g49
sg14
S'CordiaUPC'
p1060
sg16
I700
sg17
g13
sg18
g13
sg19
S'c:\\windows\\fonts\\cordiauz.ttf'
p1061
sg21
g22
sbag7
(g8
g9
NtRp1062
(dp1063
g12
g13
sg14
S'Leelawadee'
p1064
sg16
I400
sg17
g13
sg18
g13
sg19
S'c:\\windows\\fonts\\leelawad.ttf'
p1065
sg21
g22
sbag7
(g8
g9
NtRp1066
(dp1067
g12
g13
sg14
S'Arial'
p1068
sg16
I400
sg17
g13
sg18
g13
sg19
S'c:\\windows\\fonts\\arial.ttf'
p1069
sg21
g22
sbag7
(g8
g9
NtRp1070
(dp1071
g12
g49
sg14
S'Bodoni MT'
p1072
sg16
I400
sg17
g13
sg18
g13
sg19
S'c:\\windows\\fonts\\bod_i.ttf'
p1073
sg21
g22
sbag7
(g8
g9
NtRp1074
(dp1075
g12
g49
sg14
S'Helvetica Neue LT Std'
p1076
sg16
I900
sg17
g13
sg18
g13
sg19
S'C:\\Windows\\Fonts\\HelveticaNeueLTStd-BlkIt.otf'
p1077
sg21
g22
sbag7
(g8
g9
NtRp1078
(dp1079
g12
g13
sg14
S'Shonar Bangla'
p1080
sg16
I700
sg17
g13
sg18
g13
sg19
S'c:\\windows\\fonts\\shonarb.ttf'
p1081
sg21
g22
sbag7
(g8
g9
NtRp1082
(dp1083
g12
g13
sg14
S'Vani'
p1084
sg16
I400
sg17
g13
sg18
g13
sg19
S'C:\\Windows\\Fonts\\Vani.ttf'
p1085
sg21
g22
sbag7
(g8
g9
NtRp1086
(dp1087
g12
g13
sg14
S'Engravers MT'
p1088
sg16
I400
sg17
g13
sg18
g13
sg19
S'c:\\windows\\fonts\\engr.ttf'
p1089
sg21
g22
sbag7
(g8
g9
NtRp1090
(dp1091
g12
g13
sg14
S'Niagara Engraved'
p1092
sg16
I400
sg17
g13
sg18
g13
sg19
S'C:\\Windows\\Fonts\\NIAGENG.TTF'
p1093
sg21
g22
sbag7
(g8
g9
NtRp1094
(dp1095
g12
g49
sg14
S'Lucida Fax'
p1096
sg16
I700
sg17
g13
sg18
g13
sg19
S'C:\\Windows\\Fonts\\LFAXDI.TTF'
p1097
sg21
g22
sbag7
(g8
g9
NtRp1098
(dp1099
g12
g13
sg14
S'Century Gothic'
p1100
sg16
I400
sg17
g13
sg18
g13
sg19
S'C:\\Windows\\Fonts\\GOTHIC.TTF'
p1101
sg21
g22
sbag7
(g8
g9
NtRp1102
(dp1103
g12
g13
sg14
S'Bauhaus 93'
p1104
sg16
I400
sg17
g13
sg18
g13
sg19
S'C:\\Windows\\Fonts\\BAUHS93.TTF'
p1105
sg21
g22
sbag7
(g8
g9
NtRp1106
(dp1107
g12
g13
sg14
S'Haettenschweiler'
p1108
sg16
I400
sg17
g13
sg18
g13
sg19
S'C:\\Windows\\Fonts\\HATTEN.TTF'
p1109
sg21
g22
sbag7
(g8
g9
NtRp1110
(dp1111
g12
g13
sg14
S'Segoe Condensed'
p1112
sg16
I700
sg17
g256
sg18
g13
sg19
S'c:\\windows\\fonts\\segoeb.ttf'
p1113
sg21
g22
sbag7
(g8
g9
NtRp1114
(dp1115
g12
g49
sg14
S'Book Antiqua'
p1116
sg16
I400
sg17
g13
sg18
g13
sg19
S'c:\\windows\\fonts\\antquai.ttf'
p1117
sg21
g22
sbag7
(g8
g9
NtRp1118
(dp1119
g12
g114
sg14
S'Helvetica Neue LT Std'
p1120
sg16
I700
sg17
g256
sg18
g13
sg19
S'c:\\windows\\fonts\\helveticaneueltstd-bdcno.otf'
p1121
sg21
g22
sbag7
(g8
g9
NtRp1122
(dp1123
g12
g13
sg14
S'Helvetica Neue LT Std'
p1124
sg16
I400
sg17
g256
sg18
g13
sg19
S'C:\\Windows\\Fonts\\HelveticaNeueLTStd-ThCn.otf'
p1125
sg21
g22
sbag7
(g8
g9
NtRp1126
(dp1127
g12
g13
sg14
S'MS Reference Sans Serif'
p1128
sg16
I400
sg17
g13
sg18
g13
sg19
S'c:\\windows\\fonts\\refsan.ttf'
p1129
sg21
g22
sbag7
(g8
g9
NtRp1130
(dp1131
g12
g13
sg14
S'Bookman Old Style'
p1132
sg16
I700
sg17
g13
sg18
g13
sg19
S'c:\\windows\\fonts\\bookosb.ttf'
p1133
sg21
g22
sbag7
(g8
g9
NtRp1134
(dp1135
g12
g13
sg14
S'BrowalliaUPC'
p1136
sg16
I700
sg17
g13
sg18
g13
sg19
S'c:\\windows\\fonts\\browaub.ttf'
p1137
sg21
g22
sbag7
(g8
g9
NtRp1138
(dp1139
g12
g13
sg14
S'MoolBoran'
p1140
sg16
I400
sg17
g13
sg18
g13
sg19
S'C:\\Windows\\Fonts\\moolbor.ttf'
p1141
sg21
g22
sbag7
(g8
g9
NtRp1142
(dp1143
g12
g49
sg14
S'DilleniaUPC'
p1144
sg16
I700
sg17
g13
sg18
g13
sg19
S'c:\\windows\\fonts\\upcdbi.ttf'
p1145
sg21
g22
sbag7
(g8
g9
NtRp1146
(dp1147
g12
g13
sg14
S'Felix Titling'
p1148
sg16
I400
sg17
g13
sg18
g13
sg19
S'c:\\windows\\fonts\\felixti.ttf'
p1149
sg21
g22
sbag7
(g8
g9
NtRp1150
(dp1151
g12
g49
sg14
S'Kokila'
p1152
sg16
I400
sg17
g13
sg18
g13
sg19
S'C:\\Windows\\Fonts\\kokilai.ttf'
p1153
sg21
g22
sbag7
(g8
g9
NtRp1154
(dp1155
g12
g13
sg14
S'Segoe Script'
p1156
sg16
I400
sg17
g13
sg18
g13
sg19
S'C:\\Windows\\Fonts\\segoesc.ttf'
p1157
sg21
g22
sbag7
(g8
g9
NtRp1158
(dp1159
g12
g49
sg14
S'Palatino Linotype'
p1160
sg16
I400
sg17
g13
sg18
g13
sg19
S'c:\\windows\\fonts\\palai.ttf'
p1161
sg21
g22
sbag7
(g8
g9
NtRp1162
(dp1163
g12
g49
sg14
S'Franklin Gothic Heavy'
p1164
sg16
I800
sg17
g13
sg18
g13
sg19
S'c:\\windows\\fonts\\frahvit.ttf'
p1165
sg21
g22
sbag7
(g8
g9
NtRp1166
(dp1167
g12
g13
sg14
S'Malgun Gothic'
p1168
sg16
I400
sg17
g13
sg18
g13
sg19
S'C:\\Windows\\Fonts\\malgun.ttf'
p1169
sg21
g22
sbag7
(g8
g9
NtRp1170
(dp1171
g12
g13
sg14
S'Berlin Sans FB'
p1172
sg16
I400
sg17
g13
sg18
g13
sg19
S'C:\\Windows\\Fonts\\BRLNSR.TTF'
p1173
sg21
g22
sbag7
(g8
g9
NtRp1174
(dp1175
g12
g13
sg14
S'JasmineUPC'
p1176
sg16
I700
sg17
g13
sg18
g13
sg19
S'c:\\windows\\fonts\\upcjb.ttf'
p1177
sg21
g22
sbag7
(g8
g9
NtRp1178
(dp1179
g12
g13
sg14
S'David'
p1180
sg16
I700
sg17
g13
sg18
g13
sg19
S'c:\\windows\\fonts\\davidbd.ttf'
p1181
sg21
g22
sbag7
(g8
g9
NtRp1182
(dp1183
g12
g49
sg14
S'Helvetica Neue LT Std'
p1184
sg16
I700
sg17
g13
sg18
g13
sg19
S'C:\\Windows\\Fonts\\HelveticaNeueLTStd-BdIt.otf'
p1185
sg21
g22
sbag7
(g8
g9
NtRp1186
(dp1187
g12
g49
sg14
S'Constantia'
p1188
sg16
I400
sg17
g13
sg18
g13
sg19
S'C:\\Windows\\Fonts\\constani.ttf'
p1189
sg21
g22
sbag7
(g8
g9
NtRp1190
(dp1191
g12
g49
sg14
S'Perpetua'
p1192
sg16
I400
sg17
g13
sg18
g13
sg19
S'C:\\Windows\\Fonts\\PERI____.TTF'
p1193
sg21
g22
sbag7
(g8
g9
NtRp1194
(dp1195
g12
g13
sg14
S'Bodoni MT'
p1196
sg16
I700
sg17
g13
sg18
g13
sg19
S'c:\\windows\\fonts\\bod_b.ttf'
p1197
sg21
g22
sbag7
(g8
g9
NtRp1198
(dp1199
g12
g13
sg14
S'Century Schoolbook'
p1200
sg16
I700
sg17
g13
sg18
g13
sg19
S'c:\\windows\\fonts\\schlbkb.ttf'
p1201
sg21
g22
sbag7
(g8
g9
NtRp1202
(dp1203
g12
g13
sg14
S'Optima Bold'
p1204
sg16
I700
sg17
g13
sg18
g13
sg19
S'c:\\windows\\fonts\\opb_____.ttf'
p1205
sg21
g22
sbag7
(g8
g9
NtRp1206
(dp1207
g12
g13
sg14
S'Chiller'
p1208
sg16
I400
sg17
g13
sg18
g13
sg19
S'c:\\windows\\fonts\\chiller.ttf'
p1209
sg21
g22
sbag7
(g8
g9
NtRp1210
(dp1211
g12
g13
sg14
S'Book Antiqua'
p1212
sg16
I700
sg17
g13
sg18
g13
sg19
S'C:\\Windows\\Fonts\\ANTQUAB.TTF'
p1213
sg21
g22
sbag7
(g8
g9
NtRp1214
(dp1215
g12
g13
sg14
S'Constantia'
p1216
sg16
I400
sg17
g13
sg18
g13
sg19
S'c:\\windows\\fonts\\constan.ttf'
p1217
sg21
g22
sbag7
(g8
g9
NtRp1218
(dp1219
g12
g49
sg14
S'Arial'
p1220
sg16
I400
sg17
g256
sg18
g13
sg19
S'C:\\Windows\\Fonts\\ARIALNI.TTF'
p1221
sg21
g22
sbag7
(g8
g9
NtRp1222
(dp1223
g12
g13
sg14
S'Simplified Arabic Fixed'
p1224
sg16
I400
sg17
g13
sg18
g13
sg19
S'c:\\windows\\fonts\\simpfxo.ttf'
p1225
sg21
g22
sbag7
(g8
g9
NtRp1226
(dp1227
g12
g114
sg14
S'Helvetica Neue LT Std'
p1228
sg16
I700
sg17
g13
sg18
g13
sg19
S'C:\\Windows\\Fonts\\HelveticaNeueLTStd-BdExO.otf'
p1229
sg21
g22
sbag7
(g8
g9
NtRp1230
(dp1231
g12
g13
sg14
S'Mangal'
p1232
sg16
I400
sg17
g13
sg18
g13
sg19
S'c:\\windows\\fonts\\mangal.ttf'
p1233
sg21
g22
sbag7
(g8
g9
NtRp1234
(dp1235
g12
g13
sg14
S'Trebuchet MS'
p1236
sg16
I400
sg17
g13
sg18
g13
sg19
S'c:\\windows\\fonts\\trebuc.ttf'
p1237
sg21
g22
sbag7
(g8
g9
NtRp1238
(dp1239
g12
g13
sg14
S'SimHei'
p1240
sg16
I400
sg17
g13
sg18
g13
sg19
S'c:\\windows\\fonts\\simhei.ttf'
p1241
sg21
g22
sbag7
(g8
g9
NtRp1242
(dp1243
g12
g13
sg14
S'Matura MT Script Capitals'
p1244
sg16
I400
sg17
g13
sg18
g13
sg19
S'C:\\Windows\\Fonts\\MATURASC.TTF'
p1245
sg21
g22
sbag7
(g8
g9
NtRp1246
(dp1247
g12
g13
sg14
S'Gill Sans MT'
p1248
sg16
I400
sg17
g13
sg18
g13
sg19
S'c:\\windows\\fonts\\gil_____.ttf'
p1249
sg21
g22
sbag7
(g8
g9
NtRp1250
(dp1251
g12
g13
sg14
S'Lao UI'
p1252
sg16
I400
sg17
g13
sg18
g13
sg19
S'c:\\windows\\fonts\\laoui.ttf'
p1253
sg21
g22
sbag7
(g8
g9
NtRp1254
(dp1255
g12
g13
sg14
S'Gill Sans MT Ext Condensed Bold'
p1256
sg16
I700
sg17
g256
sg18
g13
sg19
S'C:\\Windows\\Fonts\\GLSNECB.TTF'
p1257
sg21
g22
sbag7
(g8
g9
NtRp1258
(dp1259
g12
g49
sg14
S'Helvetica Neue LT Std'
p1260
sg16
I200
sg17
g13
sg18
g13
sg19
S'c:\\windows\\fonts\\helveticaneueltstd-ltit.otf'
p1261
sg21
g22
sbag7
(g8
g9
NtRp1262
(dp1263
g12
g49
sg14
S'Cambria'
p1264
sg16
I400
sg17
g13
sg18
g13
sg19
S'c:\\windows\\fonts\\cambriai.ttf'
p1265
sg21
g22
sbag7
(g8
g9
NtRp1266
(dp1267
g12
g114
sg14
S'Helvetica Neue LT Std'
p1268
sg16
I200
sg17
g256
sg18
g13
sg19
S'C:\\Windows\\Fonts\\HelveticaNeueLTStd-LtCnO.otf'
p1269
sg21
g22
sbag7
(g8
g9
NtRp1270
(dp1271
g12
g49
sg14
S'Brush Script MT'
p1272
sg16
I400
sg17
g13
sg18
g13
sg19
S'C:\\Windows\\Fonts\\BRUSHSCI.TTF'
p1273
sg21
g22
sbag7
(g8
g9
NtRp1274
(dp1275
g12
g49
sg14
S'BrowalliaUPC'
p1276
sg16
I400
sg17
g13
sg18
g13
sg19
S'C:\\Windows\\Fonts\\browaui.ttf'
p1277
sg21
g22
sbag7
(g8
g9
NtRp1278
(dp1279
g12
g13
sg14
S'DaunPenh'
p1280
sg16
I400
sg17
g13
sg18
g13
sg19
S'c:\\windows\\fonts\\daunpenh.ttf'
p1281
sg21
g22
sbag7
(g8
g9
NtRp1282
(dp1283
g12
g13
sg14
S'Optima LT Std'
p1284
sg16
I500
sg17
g13
sg18
g13
sg19
S'c:\\windows\\fonts\\optimaltstd.otf'
p1285
sg21
g22
sbag7
(g8
g9
NtRp1286
(dp1287
g12
g13
sg14
S'Calisto MT'
p1288
sg16
I400
sg17
g13
sg18
g13
sg19
S'C:\\Windows\\Fonts\\CALIST.TTF'
p1289
sg21
g22
sbag7
(g8
g9
NtRp1290
(dp1291
g12
g13
sg14
S'Traditional Arabic'
p1292
sg16
I700
sg17
g13
sg18
g13
sg19
S'c:\\windows\\fonts\\tradbdo.ttf'
p1293
sg21
g22
sbag7
(g8
g9
NtRp1294
(dp1295
g12
g13
sg14
S'Arial'
p1296
sg16
I900
sg17
g13
sg18
g13
sg19
S'C:\\Windows\\Fonts\\ariblk.ttf'
p1297
sg21
g22
sbag7
(g8
g9
NtRp1298
(dp1299
g12
g13
sg14
S'Century Schoolbook'
p1300
sg16
I400
sg17
g13
sg18
g13
sg19
S'c:\\windows\\fonts\\censcbk.ttf'
p1301
sg21
g22
sbag7
(g8
g9
NtRp1302
(dp1303
g12
g13
sg14
S'Corbel'
p1304
sg16
I400
sg17
g13
sg18
g13
sg19
S'C:\\Windows\\Fonts\\corbel.ttf'
p1305
sg21
g22
sbag7
(g8
g9
NtRp1306
(dp1307
g12
g13
sg14
S'Helvetica Neue LT Std'
p1308
sg16
I900
sg17
g13
sg18
g13
sg19
S'C:\\Windows\\Fonts\\HelveticaNeueLTStd-Blk.otf'
p1309
sg21
g22
sbag7
(g8
g9
NtRp1310
(dp1311
g12
g13
sg14
S'Gloucester MT Extra Condensed'
p1312
sg16
I400
sg17
g256
sg18
g13
sg19
S'C:\\Windows\\Fonts\\GLECB.TTF'
p1313
sg21
g22
sbag7
(g8
g9
NtRp1314
(dp1315
g12
g13
sg14
S'Gautami'
p1316
sg16
I400
sg17
g13
sg18
g13
sg19
S'C:\\Windows\\Fonts\\gautami.ttf'
p1317
sg21
g22
sbag7
(g8
g9
NtRp1318
(dp1319
g12
g13
sg14
S'Niagara Solid'
p1320
sg16
I400
sg17
g13
sg18
g13
sg19
S'C:\\Windows\\Fonts\\NIAGSOL.TTF'
p1321
sg21
g22
sbag7
(g8
g9
NtRp1322
(dp1323
g12
g13
sg14
S'Optima LT Std'
p1324
sg16
I700
sg17
g13
sg18
g13
sg19
S'C:\\Windows\\Fonts\\OptimaLTStd-Bold.otf'
p1325
sg21
g22
sbag7
(g8
g9
NtRp1326
(dp1327
g12
g13
sg14
S'Microsoft Yi Baiti'
p1328
sg16
I400
sg17
g13
sg18
g13
sg19
S'C:\\Windows\\Fonts\\msyi.ttf'
p1329
sg21
g22
sbag7
(g8
g9
NtRp1330
(dp1331
g12
g13
sg14
S'Helvetica Neue LT Std'
p1332
sg16
I900
sg17
g13
sg18
g13
sg19
S'c:\\windows\\fonts\\helveticaneueltstd-blk.otf'
p1333
sg21
g22
sbag7
(g8
g9
NtRp1334
(dp1335
g12
g13
sg14
S'Levenim MT'
p1336
sg16
I400
sg17
g13
sg18
g13
sg19
S'C:\\Windows\\Fonts\\lvnm.ttf'
p1337
sg21
g22
sbag7
(g8
g9
NtRp1338
(dp1339
g12
g13
sg14
S'Bookman Old Style'
p1340
sg16
I700
sg17
g13
sg18
g13
sg19
S'C:\\Windows\\Fonts\\BOOKOSB.TTF'
p1341
sg21
g22
sbag7
(g8
g9
NtRp1342
(dp1343
g12
g13
sg14
S'DilleniaUPC'
p1344
sg16
I700
sg17
g13
sg18
g13
sg19
S'c:\\windows\\fonts\\upcdb.ttf'
p1345
sg21
g22
sbag7
(g8
g9
NtRp1346
(dp1347
g12
g114
sg14
S'Lucida Sans Typewriter'
p1348
sg16
I400
sg17
g13
sg18
g13
sg19
S'C:\\Windows\\Fonts\\LTYPEO.TTF'
p1349
sg21
g22
sbag7
(g8
g9
NtRp1350
(dp1351
g12
g49
sg14
S'Tw Cen MT'
p1352
sg16
I700
sg17
g13
sg18
g13
sg19
S'c:\\windows\\fonts\\tcbi____.ttf'
p1353
sg21
g22
sbag7
(g8
g9
NtRp1354
(dp1355
g12
g13
sg14
S'Verdana'
p1356
sg16
I700
sg17
g13
sg18
g13
sg19
S'c:\\windows\\fonts\\verdanab.ttf'
p1357
sg21
g22
sbag7
(g8
g9
NtRp1358
(dp1359
g12
g13
sg14
S'Microsoft PhagsPa'
p1360
sg16
I700
sg17
g13
sg18
g13
sg19
S'C:\\Windows\\Fonts\\phagspab.ttf'
p1361
sg21
g22
sbag7
(g8
g9
NtRp1362
(dp1363
g12
g49
sg14
S'Courier New'
p1364
sg16
I700
sg17
g13
sg18
g13
sg19
S'c:\\windows\\fonts\\courbi.ttf'
p1365
sg21
g22
sbag7
(g8
g9
NtRp1366
(dp1367
g12
g13
sg14
S'Microsoft PhagsPa'
p1368
sg16
I400
sg17
g13
sg18
g13
sg19
S'c:\\windows\\fonts\\phagspa.ttf'
p1369
sg21
g22
sbag7
(g8
g9
NtRp1370
(dp1371
g12
g13
sg14
S'Wingdings 3'
p1372
sg16
I400
sg17
g13
sg18
g13
sg19
S'c:\\windows\\fonts\\wingdng3.ttf'
p1373
sg21
g22
sbag7
(g8
g9
NtRp1374
(dp1375
g12
g13
sg14
S'IrisUPC'
p1376
sg16
I700
sg17
g13
sg18
g13
sg19
S'C:\\Windows\\Fonts\\upcib.ttf'
p1377
sg21
g22
sbag7
(g8
g9
NtRp1378
(dp1379
g12
g13
sg14
S'Calisto MT'
p1380
sg16
I700
sg17
g13
sg18
g13
sg19
S'c:\\windows\\fonts\\calistb.ttf'
p1381
sg21
g22
sbag7
(g8
g9
NtRp1382
(dp1383
g12
g13
sg14
S'Juice ITC'
p1384
sg16
I400
sg17
g13
sg18
g13
sg19
S'C:\\Windows\\Fonts\\JUICE___.TTF'
p1385
sg21
g22
sbag7
(g8
g9
NtRp1386
(dp1387
g12
g13
sg14
S'Microsoft New Tai Lue'
p1388
sg16
I700
sg17
g13
sg18
g13
sg19
S'C:\\Windows\\Fonts\\ntailub.ttf'
p1389
sg21
g22
sbag7
(g8
g9
NtRp1390
(dp1391
g12
g13
sg14
S'Shruti'
p1392
sg16
I400
sg17
g13
sg18
g13
sg19
S'C:\\Windows\\Fonts\\shruti.ttf'
p1393
sg21
g22
sbag7
(g8
g9
NtRp1394
(dp1395
g12
g49
sg14
S'Calisto MT'
p1396
sg16
I400
sg17
g13
sg18
g13
sg19
S'c:\\windows\\fonts\\calisti.ttf'
p1397
sg21
g22
sbag7
(g8
g9
NtRp1398
(dp1399
g12
g13
sg14
S'Angsana New'
p1400
sg16
I400
sg17
g13
sg18
g13
sg19
S'C:\\Windows\\Fonts\\angsa.ttf'
p1401
sg21
g22
sbag7
(g8
g9
NtRp1402
(dp1403
g12
g13
sg14
S'Helvetica Neue LT Std'
p1404
sg16
I700
sg17
g13
sg18
g13
sg19
S'c:\\windows\\fonts\\helveticaneueltstd-bd.otf'
p1405
sg21
g22
sbag7
(g8
g9
NtRp1406
(dp1407
g12
g13
sg14
S'Bradley Hand ITC'
p1408
sg16
I400
sg17
g13
sg18
g13
sg19
S'C:\\Windows\\Fonts\\BRADHITC.TTF'
p1409
sg21
g22
sbag7
(g8
g9
NtRp1410
(dp1411
g12
g13
sg14
S'Helvetica Neue LT Std'
p1412
sg16
I500
sg17
g256
sg18
g13
sg19
S'c:\\windows\\fonts\\helveticaneueltstd-mdcn.otf'
p1413
sg21
g22
sbag7
(g8
g9
NtRp1414
(dp1415
g12
g13
sg14
S'Viner Hand ITC'
p1416
sg16
I400
sg17
g13
sg18
g13
sg19
S'c:\\windows\\fonts\\vineritc.ttf'
p1417
sg21
g22
sbag7
(g8
g9
NtRp1418
(dp1419
g12
g13
sg14
S'Jokerman'
p1420
sg16
I400
sg17
g13
sg18
g13
sg19
S'c:\\windows\\fonts\\jokerman.ttf'
p1421
sg21
g22
sbag7
(g8
g9
NtRp1422
(dp1423
g12
g49
sg14
S'Lucida Handwriting'
p1424
sg16
I400
sg17
g13
sg18
g13
sg19
S'C:\\Windows\\Fonts\\LHANDW.TTF'
p1425
sg21
g22
sbag7
(g8
g9
NtRp1426
(dp1427
g12
g13
sg14
S'Segoe UI'
p1428
sg16
I700
sg17
g13
sg18
g13
sg19
S'C:\\Windows\\Fonts\\segoeuib.ttf'
p1429
sg21
g22
sbag7
(g8
g9
NtRp1430
(dp1431
g12
g13
sg14
S'Ebrima'
p1432
sg16
I400
sg17
g13
sg18
g13
sg19
S'C:\\Windows\\Fonts\\ebrima.ttf'
p1433
sg21
g22
sbag7
(g8
g9
NtRp1434
(dp1435
g12
g49
sg14
S'Candara'
p1436
sg16
I700
sg17
g13
sg18
g13
sg19
S'C:\\Windows\\Fonts\\Candaraz.ttf'
p1437
sg21
g22
sbag7
(g8
g9
NtRp1438
(dp1439
g12
g13
sg14
S'Blackadder ITC'
p1440
sg16
I900
sg17
g13
sg18
g13
sg19
S'c:\\windows\\fonts\\itcblkad.ttf'
p1441
sg21
g22
sbag7
(g8
g9
NtRp1442
(dp1443
g12
g49
sg14
S'Bodoni MT'
p1444
sg16
I700
sg17
g256
sg18
g13
sg19
S'C:\\Windows\\Fonts\\BOD_CBI.TTF'
p1445
sg21
g22
sbag7
(g8
g9
NtRp1446
(dp1447
g12
g13
sg14
S'Baskerville Old Face'
p1448
sg16
I400
sg17
g13
sg18
g13
sg19
S'c:\\windows\\fonts\\baskvill.ttf'
p1449
sg21
g22
sbag7
(g8
g9
NtRp1450
(dp1451
g12
g13
sg14
S'Lucida Fax'
p1452
sg16
I400
sg17
g13
sg18
g13
sg19
S'C:\\Windows\\Fonts\\LFAX.TTF'
p1453
sg21
g22
sbag7
(g8
g9
NtRp1454
(dp1455
g12
g13
sg14
S'Aparajita'
p1456
sg16
I700
sg17
g13
sg18
g13
sg19
S'C:\\Windows\\Fonts\\aparajb.ttf'
p1457
sg21
g22
sbag7
(g8
g9
NtRp1458
(dp1459
g12
g13
sg14
S'Helvetica Neue LT Std'
p1460
sg16
I200
sg17
g256
sg18
g13
sg19
S'C:\\Windows\\Fonts\\HelveticaNeueLTStd-LtCn.otf'
p1461
sg21
g22
sbag7
(g8
g9
NtRp1462
(dp1463
g12
g49
sg14
S'Rockwell'
p1464
sg16
I400
sg17
g13
sg18
g13
sg19
S'c:\\windows\\fonts\\rocki.ttf'
p1465
sg21
g22
sbag7
(g8
g9
NtRp1466
(dp1467
g12
g13
sg14
S'Viner Hand ITC'
p1468
sg16
I400
sg17
g13
sg18
g13
sg19
S'C:\\Windows\\Fonts\\VINERITC.TTF'
p1469
sg21
g22
sbag7
(g8
g9
NtRp1470
(dp1471
g12
g49
sg14
S'Book Antiqua'
p1472
sg16
I400
sg17
g13
sg18
g13
sg19
S'C:\\Windows\\Fonts\\ANTQUAI.TTF'
p1473
sg21
g22
sbag7
(g8
g9
NtRp1474
(dp1475
g12
g13
sg14
S'Book Antiqua'
p1476
sg16
I400
sg17
g13
sg18
g13
sg19
S'c:\\windows\\fonts\\bkant.ttf'
p1477
sg21
g22
sbag7
(g8
g9
NtRp1478
(dp1479
g12
g49
sg14
S'Bodoni MT'
p1480
sg16
I400
sg17
g13
sg18
g13
sg19
S'C:\\Windows\\Fonts\\BOD_I.TTF'
p1481
sg21
g22
sbag7
(g8
g9
NtRp1482
(dp1483
g12
g49
sg14
S'Consolas'
p1484
sg16
I400
sg17
g13
sg18
g13
sg19
S'C:\\Windows\\Fonts\\consolai.ttf'
p1485
sg21
g22
sbag7
(g8
g9
NtRp1486
(dp1487
g12
g13
sg14
S'AngsanaUPC'
p1488
sg16
I400
sg17
g13
sg18
g13
sg19
S'C:\\Windows\\Fonts\\angsau.ttf'
p1489
sg21
g22
sbag7
(g8
g9
NtRp1490
(dp1491
g12
g13
sg14
S'Garamond'
p1492
sg16
I700
sg17
g13
sg18
g13
sg19
S'c:\\windows\\fonts\\garabd.ttf'
p1493
sg21
g22
sbag7
(g8
g9
NtRp1494
(dp1495
g12
g13
sg14
S'Microsoft Uighur'
p1496
sg16
I400
sg17
g13
sg18
g13
sg19
S'C:\\Windows\\Fonts\\msuighur.ttf'
p1497
sg21
g22
sbag7
(g8
g9
NtRp1498
(dp1499
g12
g13
sg14
S'Courier New'
p1500
sg16
I700
sg17
g13
sg18
g13
sg19
S'C:\\Windows\\Fonts\\courbd.ttf'
p1501
sg21
g22
sbag7
(g8
g9
NtRp1502
(dp1503
g12
g114
sg14
S'Helvetica Neue LT Std'
p1504
sg16
I200
sg17
g13
sg18
g13
sg19
S'C:\\Windows\\Fonts\\HelveticaNeueLTStd-LtExO.otf'
p1505
sg21
g22
sbag7
(g8
g9
NtRp1506
(dp1507
g12
g13
sg14
S'Snap ITC'
p1508
sg16
I400
sg17
g13
sg18
g13
sg19
S'C:\\Windows\\Fonts\\SNAP____.TTF'
p1509
sg21
g22
sbag7
(g8
g9
NtRp1510
(dp1511
g12
g13
sg14
S'Gisha'
p1512
sg16
I400
sg17
g13
sg18
g13
sg19
S'c:\\windows\\fonts\\gisha.ttf'
p1513
sg21
g22
sbag7
(g8
g9
NtRp1514
(dp1515
g12
g13
sg14
S'Segoe Condensed'
p1516
sg16
I400
sg17
g256
sg18
g13
sg19
S'C:\\Windows\\Fonts\\segoe.ttf'
p1517
sg21
g22
sbag7
(g8
g9
NtRp1518
(dp1519
g12
g13
sg14
S'Calisto MT'
p1520
sg16
I400
sg17
g13
sg18
g13
sg19
S'c:\\windows\\fonts\\calist.ttf'
p1521
sg21
g22
sbag7
(g8
g9
NtRp1522
(dp1523
g12
g13
sg14
S'Curlz MT'
p1524
sg16
I400
sg17
g13
sg18
g13
sg19
S'c:\\windows\\fonts\\curlz___.ttf'
p1525
sg21
g22
sbag7
(g8
g9
NtRp1526
(dp1527
g12
g49
sg14
S'Arial'
p1528
sg16
I700
sg17
g13
sg18
g13
sg19
S'c:\\windows\\fonts\\arialbi.ttf'
p1529
sg21
g22
sbag7
(g8
g9
NtRp1530
(dp1531
g12
g49
sg14
S'Trebuchet MS'
p1532
sg16
I400
sg17
g13
sg18
g13
sg19
S'c:\\windows\\fonts\\trebucit.ttf'
p1533
sg21
g22
sbag7
(g8
g9
NtRp1534
(dp1535
g12
g49
sg14
S'Bookman Old Style'
p1536
sg16
I400
sg17
g13
sg18
g13
sg19
S'C:\\Windows\\Fonts\\BOOKOSI.TTF'
p1537
sg21
g22
sbag7
(g8
g9
NtRp1538
(dp1539
g12
g13
sg14
S'Britannic Bold'
p1540
sg16
I700
sg17
g13
sg18
g13
sg19
S'c:\\windows\\fonts\\britanic.ttf'
p1541
sg21
g22
sbag7
(g8
g9
NtRp1542
(dp1543
g12
g13
sg14
S'Rockwell'
p1544
sg16
I700
sg17
g13
sg18
g13
sg19
S'C:\\Windows\\Fonts\\ROCKB.TTF'
p1545
sg21
g22
sbag7
(g8
g9
NtRp1546
(dp1547
g12
g13
sg14
S'Helvetica Neue LT Std'
p1548
sg16
I400
sg17
g256
sg18
g13
sg19
S'c:\\windows\\fonts\\helveticaneueltstd-thcn.otf'
p1549
sg21
g22
sbag7
(g8
g9
NtRp1550
(dp1551
g12
g13
sg14
S'Perpetua Titling MT'
p1552
sg16
I200
sg17
g13
sg18
g13
sg19
S'c:\\windows\\fonts\\pertili.ttf'
p1553
sg21
g22
sbag7
(g8
g9
NtRp1554
(dp1555
g12
g13
sg14
S'Californian FB'
p1556
sg16
I700
sg17
g13
sg18
g13
sg19
S'C:\\Windows\\Fonts\\CALIFB.TTF'
p1557
sg21
g22
sbag7
(g8
g9
NtRp1558
(dp1559
g12
g49
sg14
S'Helvetica Neue LT Std'
p1560
sg16
I500
sg17
g13
sg18
g13
sg19
S'c:\\windows\\fonts\\helveticaneueltstd-mdit.otf'
p1561
sg21
g22
sbag7
(g8
g9
NtRp1562
(dp1563
g12
g13
sg14
S'SimSun-ExtB'
p1564
sg16
I400
sg17
g13
sg18
g13
sg19
S'c:\\windows\\fonts\\simsunb.ttf'
p1565
sg21
g22
sbag7
(g8
g9
NtRp1566
(dp1567
g12
g13
sg14
S'Tw Cen MT Condensed Extra Bold'
p1568
sg16
I700
sg17
g256
sg18
g13
sg19
S'C:\\Windows\\Fonts\\TCCEB.TTF'
p1569
sg21
g22
sbag7
(g8
g9
NtRp1570
(dp1571
g12
g13
sg14
S'Optima'
p1572
sg16
I400
sg17
g13
sg18
g13
sg19
S'C:\\Windows\\Fonts\\OP______.TTF'
p1573
sg21
g22
sbag7
(g8
g9
NtRp1574
(dp1575
g12
g13
sg14
S'MS Reference Sans Serif'
p1576
sg16
I400
sg17
g13
sg18
g13
sg19
S'C:\\Windows\\Fonts\\REFSAN.TTF'
p1577
sg21
g22
sbag7
(g8
g9
NtRp1578
(dp1579
g12
g114
sg14
S'Helvetica Neue LT Std'
p1580
sg16
I400
sg17
g13
sg18
g13
sg19
S'C:\\Windows\\Fonts\\HelveticaNeueLTStd-ExO.otf'
p1581
sg21
g22
sbag7
(g8
g9
NtRp1582
(dp1583
g12
g13
sg14
S'Traditional Arabic'
p1584
sg16
I400
sg17
g13
sg18
g13
sg19
S'C:\\Windows\\Fonts\\trado.ttf'
p1585
sg21
g22
sbag7
(g8
g9
NtRp1586
(dp1587
g12
g13
sg14
S'Bauhaus 93'
p1588
sg16
I400
sg17
g13
sg18
g13
sg19
S'c:\\windows\\fonts\\bauhs93.ttf'
p1589
sg21
g22
sbag7
(g8
g9
NtRp1590
(dp1591
g12
g114
sg14
S'Helvetica Neue LT Std'
p1592
sg16
I200
sg17
g256
sg18
g13
sg19
S'C:\\Windows\\Fonts\\HelveticaNeueLTStd-UltLtCnO.otf'
p1593
sg21
g22
sbag7
(g8
g9
NtRp1594
(dp1595
g12
g49
sg14
S'Lucida Calligraphy'
p1596
sg16
I400
sg17
g13
sg18
g13
sg19
S'c:\\windows\\fonts\\lcallig.ttf'
p1597
sg21
g22
sbag7
(g8
g9
NtRp1598
(dp1599
g12
g114
sg14
S'Lucida Sans Typewriter'
p1600
sg16
I700
sg17
g13
sg18
g13
sg19
S'C:\\Windows\\Fonts\\LTYPEBO.TTF'
p1601
sg21
g22
sbag7
(g8
g9
NtRp1602
(dp1603
g12
g13
sg14
S'Helvetica LT Std'
p1604
sg16
I900
sg17
g256
sg18
g13
sg19
S'c:\\windows\\fonts\\helveticaltstd-blkcond.otf'
p1605
sg21
g22
sbag7
(g8
g9
NtRp1606
(dp1607
g12
g13
sg14
S'Helvetica Neue LT Std'
p1608
sg16
I500
sg17
g13
sg18
g13
sg19
S'c:\\windows\\fonts\\helveticaneueltstd-mdex.otf'
p1609
sg21
g22
sbag7
(g8
g9
NtRp1610
(dp1611
g12
g13
sg14
S'Miriam'
p1612
sg16
I400
sg17
g13
sg18
g13
sg19
S'c:\\windows\\fonts\\mriam.ttf'
p1613
sg21
g22
sbag7
(g8
g9
NtRp1614
(dp1615
g12
g49
sg14
S'Times New Roman'
p1616
sg16
I700
sg17
g13
sg18
g13
sg19
S'c:\\windows\\fonts\\timesbi.ttf'
p1617
sg21
g22
sbag7
(g8
g9
NtRp1618
(dp1619
g12
g114
sg14
S'Helvetica Neue LT Std'
p1620
sg16
I400
sg17
g256
sg18
g13
sg19
S'C:\\Windows\\Fonts\\HelveticaNeueLTStd-ThCnO.otf'
p1621
sg21
g22
sbag7
(g8
g9
NtRp1622
(dp1623
g12
g13
sg14
S'Comic Sans MS'
p1624
sg16
I700
sg17
g13
sg18
g13
sg19
S'c:\\windows\\fonts\\comicbd.ttf'
p1625
sg21
g22
sbag7
(g8
g9
NtRp1626
(dp1627
g12
g13
sg14
S'Candara'
p1628
sg16
I700
sg17
g13
sg18
g13
sg19
S'c:\\windows\\fonts\\candarab.ttf'
p1629
sg21
g22
sbag7
(g8
g9
NtRp1630
(dp1631
g12
g13
sg14
S'Modern No. 20'
p1632
sg16
I400
sg17
g13
sg18
g13
sg19
S'C:\\Windows\\Fonts\\MOD20.TTF'
p1633
sg21
g22
sbag7
(g8
g9
NtRp1634
(dp1635
g12
g13
sg14
S'Lucida Sans Typewriter'
p1636
sg16
I400
sg17
g13
sg18
g13
sg19
S'C:\\Windows\\Fonts\\LTYPE.TTF'
p1637
sg21
g22
sbag7
(g8
g9
NtRp1638
(dp1639
g12
g114
sg14
S'Lucida Sans Typewriter'
p1640
sg16
I400
sg17
g13
sg18
g13
sg19
S'c:\\windows\\fonts\\ltypeo.ttf'
p1641
sg21
g22
sbag7
(g8
g9
NtRp1642
(dp1643
g12
g13
sg14
S'Helvetica Neue LT Std'
p1644
sg16
I400
sg17
g13
sg18
g13
sg19
S'c:\\windows\\fonts\\helveticaneueltstd-th.otf'
p1645
sg21
g22
sbag7
(g8
g9
NtRp1646
(dp1647
g12
g13
sg14
S'Microsoft JhengHei'
p1648
sg16
I400
sg17
g13
sg18
g13
sg19
S'C:\\Windows\\Fonts\\msjh.ttf'
p1649
sg21
g22
sbag7
(g8
g9
NtRp1650
(dp1651
g12
g49
sg14
S'Helvetica Neue LT Std'
p1652
sg16
I800
sg17
g13
sg18
g13
sg19
S'c:\\windows\\fonts\\helveticaneueltstd-hvit.otf'
p1653
sg21
g22
sbag7
(g8
g9
NtRp1654
(dp1655
g12
g13
sg14
S'Eras Light ITC'
p1656
sg16
I200
sg17
g13
sg18
g13
sg19
S'C:\\Windows\\Fonts\\ERASLGHT.TTF'
p1657
sg21
g22
sbag7
(g8
g9
NtRp1658
(dp1659
g12
g13
sg14
S'Helvetica Neue LT Std'
p1660
sg16
I200
sg17
g13
sg18
g13
sg19
S'C:\\Windows\\Fonts\\HelveticaNeueLTStd-Lt.otf'
p1661
sg21
g22
sbag7
(g8
g9
NtRp1662
(dp1663
g12
g13
sg14
S'Tw Cen MT'
p1664
sg16
I400
sg17
g13
sg18
g13
sg19
S'C:\\Windows\\Fonts\\TCM_____.TTF'
p1665
sg21
g22
sbag7
(g8
g9
NtRp1666
(dp1667
g12
g13
sg14
S'Goudy Stout'
p1668
sg16
I400
sg17
g13
sg18
g13
sg19
S'c:\\windows\\fonts\\goudysto.ttf'
p1669
sg21
g22
sbag7
(g8
g9
NtRp1670
(dp1671
g12
g13
sg14
S'Browallia New'
p1672
sg16
I400
sg17
g13
sg18
g13
sg19
S'C:\\Windows\\Fonts\\browa.ttf'
p1673
sg21
g22
sbag7
(g8
g9
NtRp1674
(dp1675
g12
g13
sg14
S'David'
p1676
sg16
I400
sg17
g13
sg18
g13
sg19
S'C:\\Windows\\Fonts\\david.ttf'
p1677
sg21
g22
sbag7
(g8
g9
NtRp1678
(dp1679
g12
g13
sg14
S'Helvetica Neue LT Std'
p1680
sg16
I500
sg17
g13
sg18
g13
sg19
S'C:\\Windows\\Fonts\\HelveticaNeueLTStd-MdEx.otf'
p1681
sg21
g22
sbag7
(g8
g9
NtRp1682
(dp1683
g12
g13
sg14
S'Gigi'
p1684
sg16
I400
sg17
g13
sg18
g13
sg19
S'C:\\Windows\\Fonts\\GIGI.TTF'
p1685
sg21
g22
sbag7
(g8
g9
NtRp1686
(dp1687
g12
g13
sg14
S'Palatino Linotype'
p1688
sg16
I700
sg17
g13
sg18
g13
sg19
S'c:\\windows\\fonts\\palab.ttf'
p1689
sg21
g22
sbag7
(g8
g9
NtRp1690
(dp1691
g12
g13
sg14
S'Rockwell Condensed'
p1692
sg16
I700
sg17
g256
sg18
g13
sg19
S'C:\\Windows\\Fonts\\ROCCB___.TTF'
p1693
sg21
g22
sbag7
(g8
g9
NtRp1694
(dp1695
g12
g13
sg14
S'Californian FB'
p1696
sg16
I400
sg17
g13
sg18
g13
sg19
S'C:\\Windows\\Fonts\\CALIFR.TTF'
p1697
sg21
g22
sbag7
(g8
g9
NtRp1698
(dp1699
g12
g49
sg14
S'Candara'
p1700
sg16
I400
sg17
g13
sg18
g13
sg19
S'c:\\windows\\fonts\\candarai.ttf'
p1701
sg21
g22
sbag7
(g8
g9
NtRp1702
(dp1703
g12
g13
sg14
S'Franklin Gothic Book'
p1704
sg16
I400
sg17
g13
sg18
g13
sg19
S'c:\\windows\\fonts\\frabk.ttf'
p1705
sg21
g22
sbag7
(g8
g9
NtRp1706
(dp1707
g12
g13
sg14
S'Aparajita'
p1708
sg16
I400
sg17
g13
sg18
g13
sg19
S'c:\\windows\\fonts\\aparaj.ttf'
p1709
sg21
g22
sbag7
(g8
g9
NtRp1710
(dp1711
g12
g13
sg14
S'Helvetica Neue LT Std'
p1712
sg16
I800
sg17
g13
sg18
g13
sg19
S'C:\\Windows\\Fonts\\HelveticaNeueLTStd-HvEx.otf'
p1713
sg21
g22
sbag7
(g8
g9
NtRp1714
(dp1715
g12
g13
sg14
S'Helvetica Neue LT Std'
p1716
sg16
I900
sg17
g256
sg18
g13
sg19
S'c:\\windows\\fonts\\helveticaneueltstd-xblkcn.otf'
p1717
sg21
g22
sbag7
(g8
g9
NtRp1718
(dp1719
g12
g13
sg14
S'Goudy Old Style'
p1720
sg16
I700
sg17
g13
sg18
g13
sg19
S'c:\\windows\\fonts\\goudosb.ttf'
p1721
sg21
g22
sbag7
(g8
g9
NtRp1722
(dp1723
g12
g13
sg14
S'CordiaUPC'
p1724
sg16
I700
sg17
g13
sg18
g13
sg19
S'C:\\Windows\\Fonts\\cordiaub.ttf'
p1725
sg21
g22
sbag7
(g8
g9
NtRp1726
(dp1727
g12
g13
sg14
S'Eras Light ITC'
p1728
sg16
I200
sg17
g13
sg18
g13
sg19
S'c:\\windows\\fonts\\eraslght.ttf'
p1729
sg21
g22
sbag7
(g8
g9
NtRp1730
(dp1731
g12
g49
sg14
S'Tw Cen MT'
p1732
sg16
I700
sg17
g13
sg18
g13
sg19
S'C:\\Windows\\Fonts\\TCBI____.TTF'
p1733
sg21
g22
sbag7
(g8
g9
NtRp1734
(dp1735
g12
g13
sg14
S'Cooper Black'
p1736
sg16
I900
sg17
g13
sg18
g13
sg19
S'C:\\Windows\\Fonts\\COOPBL.TTF'
p1737
sg21
g22
sbag7
(g8
g9
NtRp1738
(dp1739
g12
g13
sg14
S'Lucida Bright'
p1740
sg16
I400
sg17
g13
sg18
g13
sg19
S'c:\\program files (x86)\\common files\\cisco systems\\client services framework\\jre\\lib\\fonts\\lucidabrightregular.ttf'
p1741
sg21
g22
sbag7
(g8
g9
NtRp1742
(dp1743
g12
g13
sg14
S'Perpetua Titling MT'
p1744
sg16
I700
sg17
g13
sg18
g13
sg19
S'c:\\windows\\fonts\\pertibd.ttf'
p1745
sg21
g22
sbag7
(g8
g9
NtRp1746
(dp1747
g12
g13
sg14
S'Bell MT'
p1748
sg16
I400
sg17
g13
sg18
g13
sg19
S'C:\\Windows\\Fonts\\BELL.TTF'
p1749
sg21
g22
sbag7
(g8
g9
NtRp1750
(dp1751
g12
g49
sg14
S'Elephant'
p1752
sg16
I400
sg17
g13
sg18
g13
sg19
S'c:\\windows\\fonts\\elephnti.ttf'
p1753
sg21
g22
sbag7
(g8
g9
NtRp1754
(dp1755
g12
g49
sg14
S'Times New Roman'
p1756
sg16
I500
sg17
g13
sg18
g13
sg19
S'C:\\Windows\\Fonts\\timesi.ttf'
p1757
sg21
g22
sbag7
(g8
g9
NtRp1758
(dp1759
g12
g49
sg14
S'Century Gothic'
p1760
sg16
I700
sg17
g13
sg18
g13
sg19
S'c:\\windows\\fonts\\gothicbi.ttf'
p1761
sg21
g22
sbag7
(g8
g9
NtRp1762
(dp1763
g12
g13
sg14
S'Gabriola'
p1764
sg16
I400
sg17
g13
sg18
g13
sg19
S'C:\\Windows\\Fonts\\Gabriola.ttf'
p1765
sg21
g22
sbag7
(g8
g9
NtRp1766
(dp1767
g12
g13
sg14
S'Harrington'
p1768
sg16
I400
sg17
g13
sg18
g13
sg19
S'c:\\windows\\fonts\\harngton.ttf'
p1769
sg21
g22
sbag7
(g8
g9
NtRp1770
(dp1771
g12
g13
sg14
S'Gill Sans Ultra Bold'
p1772
sg16
I700
sg17
g13
sg18
g13
sg19
S'C:\\Windows\\Fonts\\GILSANUB.TTF'
p1773
sg21
g22
sbag7
(g8
g9
NtRp1774
(dp1775
g12
g13
sg14
S'Tw Cen MT'
p1776
sg16
I700
sg17
g13
sg18
g13
sg19
S'C:\\Windows\\Fonts\\TCB_____.TTF'
p1777
sg21
g22
sbag7
(g8
g9
NtRp1778
(dp1779
g12
g13
sg14
S'Iskoola Pota'
p1780
sg16
I400
sg17
g13
sg18
g13
sg19
S'c:\\windows\\fonts\\iskpota.ttf'
p1781
sg21
g22
sbag7
(g8
g9
NtRp1782
(dp1783
g12
g13
sg14
S'Bodoni MT'
p1784
sg16
I700
sg17
g256
sg18
g13
sg19
S'C:\\Windows\\Fonts\\BOD_CB.TTF'
p1785
sg21
g22
sbag7
(g8
g9
NtRp1786
(dp1787
g12
g13
sg14
S'Engravers MT'
p1788
sg16
I400
sg17
g13
sg18
g13
sg19
S'C:\\Windows\\Fonts\\ENGR.TTF'
p1789
sg21
g22
sbag7
(g8
g9
NtRp1790
(dp1791
g12
g49
sg14
S'Candara'
p1792
sg16
I400
sg17
g13
sg18
g13
sg19
S'C:\\Windows\\Fonts\\Candarai.ttf'
p1793
sg21
g22
sbag7
(g8
g9
NtRp1794
(dp1795
g12
g49
sg14
S'Garamond'
p1796
sg16
I400
sg17
g13
sg18
g13
sg19
S'c:\\windows\\fonts\\garait.ttf'
p1797
sg21
g22
sbag7
(g8
g9
NtRp1798
(dp1799
g12
g13
sg14
S'Gill Sans MT'
p1800
sg16
I700
sg17
g13
sg18
g13
sg19
S'c:\\windows\\fonts\\gilb____.ttf'
p1801
sg21
g22
sbag7
(g8
g9
NtRp1802
(dp1803
g12
g13
sg14
S'Century'
p1804
sg16
I400
sg17
g13
sg18
g13
sg19
S'c:\\windows\\fonts\\century.ttf'
p1805
sg21
g22
sbag7
(g8
g9
NtRp1806
(dp1807
g12
g49
sg14
S'Helvetica Neue LT Std'
p1808
sg16
I200
sg17
g13
sg18
g13
sg19
S'c:\\windows\\fonts\\helveticaneueltstd-ultltit.otf'
p1809
sg21
g22
sbag7
(g8
g9
NtRp1810
(dp1811
g12
g49
sg14
S'Aparajita'
p1812
sg16
I400
sg17
g13
sg18
g13
sg19
S'c:\\windows\\fonts\\aparaji.ttf'
p1813
sg21
g22
sbag7
(g8
g9
NtRp1814
(dp1815
g12
g49
sg14
S'Franklin Gothic Book'
p1816
sg16
I400
sg17
g13
sg18
g13
sg19
S'c:\\windows\\fonts\\frabkit.ttf'
p1817
sg21
g22
sbag7
(g8
g9
NtRp1818
(dp1819
g12
g13
sg14
S'Mongolian Baiti'
p1820
sg16
I400
sg17
g13
sg18
g13
sg19
S'C:\\Windows\\Fonts\\monbaiti.ttf'
p1821
sg21
g22
sbag7
(g8
g9
NtRp1822
(dp1823
g12
g49
sg14
S'Gill Sans MT'
p1824
sg16
I700
sg17
g13
sg18
g13
sg19
S'c:\\windows\\fonts\\gilbi___.ttf'
p1825
sg21
g22
sbag7
(g8
g9
NtRp1826
(dp1827
g12
g13
sg14
S'MS Outlook'
p1828
sg16
I400
sg17
g13
sg18
g13
sg19
S'c:\\windows\\fonts\\outlook.ttf'
p1829
sg21
g22
sbag7
(g8
g9
NtRp1830
(dp1831
g12
g49
sg14
S'Lucida Fax'
p1832
sg16
I700
sg17
g13
sg18
g13
sg19
S'c:\\windows\\fonts\\lfaxdi.ttf'
p1833
sg21
g22
sbag7
(g8
g9
NtRp1834
(dp1835
g12
g13
sg14
S'Candara'
p1836
sg16
I400
sg17
g13
sg18
g13
sg19
S'c:\\windows\\fonts\\candara.ttf'
p1837
sg21
g22
sbag7
(g8
g9
NtRp1838
(dp1839
g12
g13
sg14
S'Copperplate Gothic Light'
p1840
sg16
I200
sg17
g13
sg18
g13
sg19
S'C:\\Windows\\Fonts\\COPRGTL.TTF'
p1841
sg21
g22
sbag7
(g8
g9
NtRp1842
(dp1843
g12
g13
sg14
S'Perpetua'
p1844
sg16
I400
sg17
g13
sg18
g13
sg19
S'C:\\Windows\\Fonts\\PER_____.TTF'
p1845
sg21
g22
sbag7
(g8
g9
NtRp1846
(dp1847
g12
g13
sg14
S'Vijaya'
p1848
sg16
I400
sg17
g13
sg18
g13
sg19
S'c:\\windows\\fonts\\vijaya.ttf'
p1849
sg21
g22
sbag7
(g8
g9
NtRp1850
(dp1851
g12
g13
sg14
S'Arial'
p1852
sg16
I400
sg17
g256
sg18
g13
sg19
S'c:\\windows\\fonts\\arialn.ttf'
p1853
sg21
g22
sbag7
(g8
g9
NtRp1854
(dp1855
g12
g13
sg14
S'Colonna MT'
p1856
sg16
I400
sg17
g13
sg18
g13
sg19
S'c:\\windows\\fonts\\colonna.ttf'
p1857
sg21
g22
sbag7
(g8
g9
NtRp1858
(dp1859
g12
g49
sg14
S'Cordia New'
p1860
sg16
I400
sg17
g13
sg18
g13
sg19
S'C:\\Windows\\Fonts\\cordiai.ttf'
p1861
sg21
g22
sbag7
(g8
g9
NtRp1862
(dp1863
g12
g13
sg14
S'Segoe UI'
p1864
sg16
I400
sg17
g13
sg18
g13
sg19
S'C:\\Windows\\Fonts\\segoeuil.ttf'
p1865
sg21
g22
sbag7
(g8
g9
NtRp1866
(dp1867
g12
g13
sg14
S'Helvetica LT Std'
p1868
sg16
I900
sg17
g256
sg18
g13
sg19
S'C:\\Windows\\Fonts\\HelveticaLTStd-BlkCond.otf'
p1869
sg21
g22
sbag7
(g8
g9
NtRp1870
(dp1871
g12
g13
sg14
S'Lucida Fax'
p1872
sg16
I400
sg17
g13
sg18
g13
sg19
S'c:\\windows\\fonts\\lfax.ttf'
p1873
sg21
g22
sbag7
(g8
g9
NtRp1874
(dp1875
g12
g13
sg14
S'Tunga'
p1876
sg16
I700
sg17
g13
sg18
g13
sg19
S'C:\\Windows\\Fonts\\tungab.ttf'
p1877
sg21
g22
sbag7
(g8
g9
NtRp1878
(dp1879
g12
g13
sg14
S'Helvetica Neue LT Std'
p1880
sg16
I200
sg17
g13
sg18
g13
sg19
S'c:\\windows\\fonts\\helveticaneueltstd-ltex.otf'
p1881
sg21
g22
sbag7
(g8
g9
NtRp1882
(dp1883
g12
g13
sg14
S'Helvetica Neue LT Std'
p1884
sg16
I500
sg17
g13
sg18
g13
sg19
S'C:\\Windows\\Fonts\\HelveticaNeueLTStd-Md.otf'
p1885
sg21
g22
sbag7
(g8
g9
NtRp1886
(dp1887
g12
g49
sg14
S'Gill Sans MT'
p1888
sg16
I400
sg17
g13
sg18
g13
sg19
S'C:\\Windows\\Fonts\\GILI____.TTF'
p1889
sg21
g22
sbag7
(g8
g9
NtRp1890
(dp1891
g12
g13
sg14
S'Sakkal Majalla'
p1892
sg16
I700
sg17
g13
sg18
g13
sg19
S'C:\\Windows\\Fonts\\majallab.ttf'
p1893
sg21
g22
sbag7
(g8
g9
NtRp1894
(dp1895
g12
g49
sg14
S'Rage Italic'
p1896
sg16
I400
sg17
g13
sg18
g13
sg19
S'C:\\Windows\\Fonts\\RAGE.TTF'
p1897
sg21
g22
sbag7
(g8
g9
NtRp1898
(dp1899
g12
g13
sg14
S'Haettenschweiler'
p1900
sg16
I400
sg17
g13
sg18
g13
sg19
S'c:\\windows\\fonts\\hatten.ttf'
p1901
sg21
g22
sbag7
(g8
g9
NtRp1902
(dp1903
g12
g49
sg14
S'Perpetua'
p1904
sg16
I700
sg17
g13
sg18
g13
sg19
S'C:\\Windows\\Fonts\\PERBI___.TTF'
p1905
sg21
g22
sbag7
(g8
g9
NtRp1906
(dp1907
g12
g13
sg14
S'FrankRuehl'
p1908
sg16
I400
sg17
g13
sg18
g13
sg19
S'c:\\windows\\fonts\\frank.ttf'
p1909
sg21
g22
sbag7
(g8
g9
NtRp1910
(dp1911
g12
g13
sg14
S'Shonar Bangla'
p1912
sg16
I400
sg17
g13
sg18
g13
sg19
S'C:\\Windows\\Fonts\\Shonar.ttf'
p1913
sg21
g22
sbag7
(g8
g9
NtRp1914
(dp1915
g12
g13
sg14
S'Berlin Sans FB'
p1916
sg16
I400
sg17
g13
sg18
g13
sg19
S'c:\\windows\\fonts\\brlnsr.ttf'
p1917
sg21
g22
sbag7
(g8
g9
NtRp1918
(dp1919
g12
g13
sg14
S'Wide Latin'
p1920
sg16
I400
sg17
S'expanded'
p1921
sg18
g13
sg19
S'C:\\Windows\\Fonts\\LATINWD.TTF'
p1922
sg21
g22
sbag7
(g8
g9
NtRp1923
(dp1924
g12
g13
sg14
S'Bookshelf Symbol 7'
p1925
sg16
I400
sg17
g13
sg18
g13
sg19
S'C:\\Windows\\Fonts\\BSSYM7.TTF'
p1926
sg21
g22
sbag7
(g8
g9
NtRp1927
(dp1928
g12
g13
sg14
S'Bell MT'
p1929
sg16
I400
sg17
g13
sg18
g13
sg19
S'c:\\windows\\fonts\\bell.ttf'
p1930
sg21
g22
sbag7
(g8
g9
NtRp1931
(dp1932
g12
g49
sg14
S'Corbel'
p1933
sg16
I700
sg17
g13
sg18
g13
sg19
S'C:\\Windows\\Fonts\\corbelz.ttf'
p1934
sg21
g22
sbag7
(g8
g9
NtRp1935
(dp1936
g12
g13
sg14
S'Forte'
p1937
sg16
I400
sg17
g13
sg18
g13
sg19
S'C:\\Windows\\Fonts\\FORTE.TTF'
p1938
sg21
g22
sbag7
(g8
g9
NtRp1939
(dp1940
g12
g13
sg14
S'Nina'
p1941
sg16
I400
sg17
g13
sg18
g13
sg19
S'c:\\windows\\fonts\\nina.ttf'
p1942
sg21
g22
sbag7
(g8
g9
NtRp1943
(dp1944
g12
g13
sg14
S'Bodoni MT'
p1945
sg16
I700
sg17
g13
sg18
g13
sg19
S'C:\\Windows\\Fonts\\BOD_B.TTF'
p1946
sg21
g22
sbag7
(g8
g9
NtRp1947
(dp1948
g12
g13
sg14
S'Segoe Script'
p1949
sg16
I700
sg17
g13
sg18
g13
sg19
S'c:\\windows\\fonts\\segoescb.ttf'
p1950
sg21
g22
sbag7
(g8
g9
NtRp1951
(dp1952
g12
g49
sg14
S'Franklin Gothic Heavy'
p1953
sg16
I800
sg17
g13
sg18
g13
sg19
S'C:\\Windows\\Fonts\\FRAHVIT.TTF'
p1954
sg21
g22
sbag7
(g8
g9
NtRp1955
(dp1956
g12
g13
sg14
S'Comic Sans MS'
p1957
sg16
I400
sg17
g13
sg18
g13
sg19
S'C:\\Windows\\Fonts\\comic.ttf'
p1958
sg21
g22
sbag7
(g8
g9
NtRp1959
(dp1960
g12
g13
sg14
S'Tw Cen MT Condensed'
p1961
sg16
I400
sg17
g256
sg18
g13
sg19
S'C:\\Windows\\Fonts\\TCCM____.TTF'
p1962
sg21
g22
sbag7
(g8
g9
NtRp1963
(dp1964
g12
g13
sg14
S'Juice ITC'
p1965
sg16
I400
sg17
g13
sg18
g13
sg19
S'c:\\windows\\fonts\\juice___.ttf'
p1966
sg21
g22
sbag7
(g8
g9
NtRp1967
(dp1968
g12
g13
sg14
S'Helvetica Neue LT Std'
p1969
sg16
I400
sg17
g13
sg18
g13
sg19
S'C:\\Windows\\Fonts\\HelveticaNeueLTStd-Th.otf'
p1970
sg21
g22
sbag7
(g8
g9
NtRp1971
(dp1972
g12
g13
sg14
S'French Script MT'
p1973
sg16
I400
sg17
g13
sg18
g13
sg19
S'C:\\Windows\\Fonts\\FRSCRIPT.TTF'
p1974
sg21
g22
sbag7
(g8
g9
NtRp1975
(dp1976
g12
g13
sg14
S'Century Schoolbook'
p1977
sg16
I700
sg17
g13
sg18
g13
sg19
S'C:\\Windows\\Fonts\\SCHLBKB.TTF'
p1978
sg21
g22
sbag7
(g8
g9
NtRp1979
(dp1980
g12
g13
sg14
S'Lucida Sans'
p1981
sg16
I400
sg17
g13
sg18
g13
sg19
S'c:\\windows\\fonts\\lsans.ttf'
p1982
sg21
g22
sbag7
(g8
g9
NtRp1983
(dp1984
g12
g13
sg14
S'Mistral'
p1985
sg16
I400
sg17
g13
sg18
g13
sg19
S'C:\\Windows\\Fonts\\MISTRAL.TTF'
p1986
sg21
g22
sbag7
(g8
g9
NtRp1987
(dp1988
g12
g13
sg14
S'Franklin Gothic Medium Cond'
p1989
sg16
I500
sg17
g256
sg18
g13
sg19
S'c:\\windows\\fonts\\framdcn.ttf'
p1990
sg21
g22
sbag7
(g8
g9
NtRp1991
(dp1992
g12
g49
sg14
S'Century Schoolbook'
p1993
sg16
I400
sg17
g13
sg18
g13
sg19
S'C:\\Windows\\Fonts\\SCHLBKI.TTF'
p1994
sg21
g22
sbag7
(g8
g9
NtRp1995
(dp1996
g12
g13
sg14
S'Garamond'
p1997
sg16
I700
sg17
g13
sg18
g13
sg19
S'C:\\Windows\\Fonts\\GARABD.TTF'
p1998
sg21
g22
sbag7
(g8
g9
NtRp1999
(dp2000
g12
g49
sg14
S'Franklin Gothic Book'
p2001
sg16
I400
sg17
g13
sg18
g13
sg19
S'C:\\Windows\\Fonts\\FRABKIT.TTF'
p2002
sg21
g22
sbag7
(g8
g9
NtRp2003
(dp2004
g12
g13
sg14
S'JasmineUPC'
p2005
sg16
I400
sg17
g13
sg18
g13
sg19
S'C:\\Windows\\Fonts\\upcjl.ttf'
p2006
sg21
g22
sbag7
(g8
g9
NtRp2007
(dp2008
g12
g13
sg14
S'Castellar'
p2009
sg16
I400
sg17
g13
sg18
g13
sg19
S'C:\\Windows\\Fonts\\CASTELAR.TTF'
p2010
sg21
g22
sbag7
(g8
g9
NtRp2011
(dp2012
g12
g13
sg14
S'Book Antiqua'
p2013
sg16
I700
sg17
g13
sg18
g13
sg19
S'c:\\windows\\fonts\\antquab.ttf'
p2014
sg21
g22
sbag7
(g8
g9
NtRp2015
(dp2016
g12
g49
sg14
S'Brush Script MT'
p2017
sg16
I400
sg17
g13
sg18
g13
sg19
S'c:\\windows\\fonts\\brushsci.ttf'
p2018
sg21
g22
sbag7
(g8
g9
NtRp2019
(dp2020
g12
g49
sg14
S'Lucida Fax'
p2021
sg16
I400
sg17
g13
sg18
g13
sg19
S'C:\\Windows\\Fonts\\LFAXI.TTF'
p2022
sg21
g22
sbag7
(g8
g9
NtRp2023
(dp2024
g12
g13
sg14
S'Freestyle Script'
p2025
sg16
I400
sg17
g13
sg18
g13
sg19
S'c:\\windows\\fonts\\freescpt.ttf'
p2026
sg21
g22
sbag7
(g8
g9
NtRp2027
(dp2028
g12
g49
sg14
S'Bodoni MT'
p2029
sg16
I400
sg17
g256
sg18
g13
sg19
S'c:\\windows\\fonts\\bod_ci.ttf'
p2030
sg21
g22
sbag7
(g8
g9
NtRp2031
(dp2032
g12
g114
sg14
S'Helvetica Neue LT Std'
p2033
sg16
I700
sg17
g13
sg18
g13
sg19
S'c:\\windows\\fonts\\helveticaneueltstd-bdexo.otf'
p2034
sg21
g22
sbag7
(g8
g9
NtRp2035
(dp2036
g12
g13
sg14
S'Gill Sans Ultra Bold'
p2037
sg16
I700
sg17
g13
sg18
g13
sg19
S'c:\\windows\\fonts\\gilsanub.ttf'
p2038
sg21
g22
sbag7
(g8
g9
NtRp2039
(dp2040
g12
g13
sg14
S'Papyrus'
p2041
sg16
I400
sg17
g13
sg18
g13
sg19
S'C:\\Windows\\Fonts\\PAPYRUS.TTF'
p2042
sg21
g22
sbag7
(g8
g9
NtRp2043
(dp2044
g12
g13
sg14
S'Gigi'
p2045
sg16
I400
sg17
g13
sg18
g13
sg19
S'c:\\windows\\fonts\\gigi.ttf'
p2046
sg21
g22
sbag7
(g8
g9
NtRp2047
(dp2048
g12
g13
sg14
S'Tempus Sans ITC'
p2049
sg16
I400
sg17
g13
sg18
g13
sg19
S'c:\\windows\\fonts\\tempsitc.ttf'
p2050
sg21
g22
sbag7
(g8
g9
NtRp2051
(dp2052
g12
g13
sg14
S'Lucida Bright'
p2053
sg16
I700
sg17
g13
sg18
g13
sg19
S'C:\\Windows\\Fonts\\LBRITED.TTF'
p2054
sg21
g22
sbag7
(g8
g9
NtRp2055
(dp2056
g12
g13
sg14
S'Berlin Sans FB'
p2057
sg16
I700
sg17
g13
sg18
g13
sg19
S'C:\\Windows\\Fonts\\BRLNSB.TTF'
p2058
sg21
g22
sbag7
(g8
g9
NtRp2059
(dp2060
g12
g49
sg14
S'LilyUPC'
p2061
sg16
I700
sg17
g13
sg18
g13
sg19
S'c:\\windows\\fonts\\upclbi.ttf'
p2062
sg21
g22
sbag7
(g8
g9
NtRp2063
(dp2064
g12
g13
sg14
S'Wide Latin'
p2065
sg16
I400
sg17
g1921
sg18
g13
sg19
S'c:\\windows\\fonts\\latinwd.ttf'
p2066
sg21
g22
sbag7
(g8
g9
NtRp2067
(dp2068
g12
g13
sg14
S'Raavi'
p2069
sg16
I700
sg17
g13
sg18
g13
sg19
S'C:\\Windows\\Fonts\\raavib.ttf'
p2070
sg21
g22
sbag7
(g8
g9
NtRp2071
(dp2072
g12
g13
sg14
S'High Tower Text'
p2073
sg16
I400
sg17
g13
sg18
g13
sg19
S'c:\\windows\\fonts\\htowert.ttf'
p2074
sg21
g22
sbag7
(g8
g9
NtRp2075
(dp2076
g12
g13
sg14
S'Papyrus'
p2077
sg16
I400
sg17
g13
sg18
g13
sg19
S'c:\\windows\\fonts\\papyrus.ttf'
p2078
sg21
g22
sbag7
(g8
g9
NtRp2079
(dp2080
g12
g49
sg14
S'Lucida Bright'
p2081
sg16
I700
sg17
g13
sg18
g13
sg19
S'c:\\windows\\fonts\\lbritedi.ttf'
p2082
sg21
g22
sbag7
(g8
g9
NtRp2083
(dp2084
g12
g13
sg14
S'Elephant'
p2085
sg16
I400
sg17
g13
sg18
g13
sg19
S'c:\\windows\\fonts\\elephnt.ttf'
p2086
sg21
g22
sbag7
(g8
g9
NtRp2087
(dp2088
g12
g13
sg14
S'Microsoft New Tai Lue'
p2089
sg16
I400
sg17
g13
sg18
g13
sg19
S'C:\\Windows\\Fonts\\ntailu.ttf'
p2090
sg21
g22
sbag7
(g8
g9
NtRp2091
(dp2092
g12
g49
sg14
S'LilyUPC'
p2093
sg16
I400
sg17
g13
sg18
g13
sg19
S'C:\\Windows\\Fonts\\upcli.ttf'
p2094
sg21
g22
sbag7
(g8
g9
NtRp2095
(dp2096
g12
g114
sg14
S'Helvetica LT Std'
p2097
sg16
I900
sg17
g256
sg18
g13
sg19
S'C:\\Windows\\Fonts\\HelveticaLTStd-BlkCondObl.otf'
p2098
sg21
g22
sbag7
(g8
g9
NtRp2099
(dp2100
g12
g13
sg14
S'Franklin Gothic Demi Cond'
p2101
sg16
I600
sg17
g256
sg18
g13
sg19
S'c:\\windows\\fonts\\fradmcn.ttf'
p2102
sg21
g22
sbag7
(g8
g9
NtRp2103
(dp2104
g12
g49
sg14
S'Helvetica Neue LT Std'
p2105
sg16
I500
sg17
g13
sg18
g13
sg19
S'C:\\Windows\\Fonts\\HelveticaNeueLTStd-MdIt.otf'
p2106
sg21
g22
sbag7
(g8
g9
NtRp2107
(dp2108
g12
g49
sg14
S'Consolas'
p2109
sg16
I700
sg17
g13
sg18
g13
sg19
S'c:\\windows\\fonts\\consolaz.ttf'
p2110
sg21
g22
sbag7
(g8
g9
NtRp2111
(dp2112
g12
g49
sg14
S'Bookman Old Style'
p2113
sg16
I700
sg17
g13
sg18
g13
sg19
S'c:\\windows\\fonts\\bookosbi.ttf'
p2114
sg21
g22
sbag7
(g8
g9
NtRp2115
(dp2116
g12
g13
sg14
S'High Tower Text'
p2117
sg16
I400
sg17
g13
sg18
g13
sg19
S'C:\\Windows\\Fonts\\HTOWERT.TTF'
p2118
sg21
g22
sbag7
(g8
g9
NtRp2119
(dp2120
g12
g49
sg14
S'EucrosiaUPC'
p2121
sg16
I400
sg17
g13
sg18
g13
sg19
S'c:\\windows\\fonts\\upcei.ttf'
p2122
sg21
g22
sbag7
(g8
g9
NtRp2123
(dp2124
g12
g13
sg14
S'KodchiangUPC'
p2125
sg16
I700
sg17
g13
sg18
g13
sg19
S'c:\\windows\\fonts\\upckb.ttf'
p2126
sg21
g22
sbag7
(g8
g9
NtRp2127
(dp2128
g12
g13
sg14
S'Vani'
p2129
sg16
I700
sg17
g13
sg18
g13
sg19
S'C:\\Windows\\Fonts\\Vanib.ttf'
p2130
sg21
g22
sbag7
(g8
g9
NtRp2131
(dp2132
g12
g13
sg14
S'Tempus Sans ITC'
p2133
sg16
I400
sg17
g13
sg18
g13
sg19
S'C:\\Windows\\Fonts\\TEMPSITC.TTF'
p2134
sg21
g22
sbag7
(g8
g9
NtRp2135
(dp2136
g12
g114
sg14
S'Helvetica Neue LT Std'
p2137
sg16
I400
sg17
g256
sg18
g13
sg19
S'C:\\Windows\\Fonts\\HelveticaNeueLTStd-CnO.otf'
p2138
sg21
g22
sbag7
(g8
g9
NtRp2139
(dp2140
g12
g49
sg14
S'Corbel'
p2141
sg16
I400
sg17
g13
sg18
g13
sg19
S'C:\\Windows\\Fonts\\corbeli.ttf'
p2142
sg21
g22
sbag7
(g8
g9
NtRp2143
(dp2144
g12
g114
sg14
S'Helvetica Neue LT Std'
p2145
sg16
I500
sg17
g13
sg18
g13
sg19
S'C:\\Windows\\Fonts\\HelveticaNeueLTStd-MdExO.otf'
p2146
sg21
g22
sbag7
(g8
g9
NtRp2147
(dp2148
g12
g13
sg14
S'Gisha'
p2149
sg16
I700
sg17
g13
sg18
g13
sg19
S'C:\\Windows\\Fonts\\gishabd.ttf'
p2150
sg21
g22
sbag7
(g8
g9
NtRp2151
(dp2152
g12
g13
sg14
S'Perpetua'
p2153
sg16
I700
sg17
g13
sg18
g13
sg19
S'C:\\Windows\\Fonts\\PERB____.TTF'
p2154
sg21
g22
sbag7
(g8
g9
NtRp2155
(dp2156
g12
g13
sg14
S'Estrangelo Edessa'
p2157
sg16
I400
sg17
g13
sg18
g13
sg19
S'C:\\Windows\\Fonts\\estre.ttf'
p2158
sg21
g22
sbag7
(g8
g9
NtRp2159
(dp2160
g12
g13
sg14
S'Nyala'
p2161
sg16
I400
sg17
g13
sg18
g13
sg19
S'c:\\windows\\fonts\\nyala.ttf'
p2162
sg21
g22
sbag7
(g8
g9
NtRp2163
(dp2164
g12
g13
sg14
S'Bell MT'
p2165
sg16
I700
sg17
g13
sg18
g13
sg19
S'C:\\Windows\\Fonts\\BELLB.TTF'
p2166
sg21
g22
sbag7
(g8
g9
NtRp2167
(dp2168
g12
g13
sg14
S'Rockwell'
p2169
sg16
I400
sg17
g13
sg18
g13
sg19
S'c:\\windows\\fonts\\rock.ttf'
p2170
sg21
g22
sbag7
(g8
g9
NtRp2171
(dp2172
g12
g13
sg14
S'Agency FB'
p2173
sg16
I700
sg17
g13
sg18
g13
sg19
S'C:\\Windows\\Fonts\\AGENCYB.TTF'
p2174
sg21
g22
sbag7
(g8
g9
NtRp2175
(dp2176
g12
g13
sg14
S'Vrinda'
p2177
sg16
I400
sg17
g13
sg18
g13
sg19
S'C:\\Windows\\Fonts\\vrinda.ttf'
p2178
sg21
g22
sbag7
(g8
g9
NtRp2179
(dp2180
g12
g114
sg14
S'Helvetica Neue LT Std'
p2181
sg16
I400
sg17
g256
sg18
g13
sg19
S'c:\\windows\\fonts\\helveticaneueltstd-thcno.otf'
p2182
sg21
g22
sbag7
(g8
g9
NtRp2183
(dp2184
g12
g13
sg14
S'Tw Cen MT'
p2185
sg16
I700
sg17
g13
sg18
g13
sg19
S'c:\\windows\\fonts\\tcb_____.ttf'
p2186
sg21
g22
sbag7
(g8
g9
NtRp2187
(dp2188
g12
g13
sg14
S'Helvetica Neue LT Std'
p2189
sg16
I200
sg17
g13
sg18
g13
sg19
S'c:\\windows\\fonts\\helveticaneueltstd-lt.otf'
p2190
sg21
g22
sbag7
(g8
g9
NtRp2191
(dp2192
g12
g13
sg14
S'Imprint MT Shadow'
p2193
sg16
I400
sg17
g13
sg18
g13
sg19
S'C:\\Windows\\Fonts\\IMPRISHA.TTF'
p2194
sg21
g22
sbag7
(g8
g9
NtRp2195
(dp2196
g12
g49
sg14
S'Franklin Gothic Demi'
p2197
sg16
I600
sg17
g13
sg18
g13
sg19
S'C:\\Windows\\Fonts\\FRADMIT.TTF'
p2198
sg21
g22
sbag7
(g8
g9
NtRp2199
(dp2200
g12
g13
sg14
S'Century Gothic'
p2201
sg16
I700
sg17
g13
sg18
g13
sg19
S'C:\\Windows\\Fonts\\GOTHICB.TTF'
p2202
sg21
g22
sbag7
(g8
g9
NtRp2203
(dp2204
g12
g13
sg14
S'Helvetica Neue LT Std'
p2205
sg16
I700
sg17
g13
sg18
g13
sg19
S'c:\\windows\\fonts\\helveticaneueltstd-bdou.otf'
p2206
sg21
g22
sbag7
(g8
g9
NtRp2207
(dp2208
g12
g13
sg14
S'Georgia'
p2209
sg16
I400
sg17
g13
sg18
g13
sg19
S'C:\\Windows\\Fonts\\georgia.ttf'
p2210
sg21
g22
sbag7
(g8
g9
NtRp2211
(dp2212
g12
g13
sg14
S'Niagara Solid'
p2213
sg16
I400
sg17
g13
sg18
g13
sg19
S'c:\\windows\\fonts\\niagsol.ttf'
p2214
sg21
g22
sbag7
(g8
g9
NtRp2215
(dp2216
g12
g49
sg14
S'Rockwell'
p2217
sg16
I700
sg17
g13
sg18
g13
sg19
S'c:\\windows\\fonts\\rockbi.ttf'
p2218
sg21
g22
sbag7
(g8
g9
NtRp2219
(dp2220
g12
g13
sg14
S'Helvetica Neue LT Std'
p2221
sg16
I200
sg17
g13
sg18
g13
sg19
S'C:\\Windows\\Fonts\\HelveticaNeueLTStd-UltLtEx.otf'
p2222
sg21
g22
sbag7
(g8
g9
NtRp2223
(dp2224
g12
g13
sg14
S'Perpetua Titling MT'
p2225
sg16
I200
sg17
g13
sg18
g13
sg19
S'C:\\Windows\\Fonts\\PERTILI.TTF'
p2226
sg21
g22
sbag7
(g8
g9
NtRp2227
(dp2228
g12
g114
sg14
S'Helvetica Neue LT Std'
p2229
sg16
I500
sg17
g256
sg18
g13
sg19
S'C:\\Windows\\Fonts\\HelveticaNeueLTStd-MdCnO.otf'
p2230
sg21
g22
sbag7
(g8
g9
NtRp2231
(dp2232
g12
g13
sg14
S'Helvetica Neue LT Std'
p2233
sg16
I500
sg17
g256
sg18
g13
sg19
S'C:\\Windows\\Fonts\\HelveticaNeueLTStd-MdCn.otf'
p2234
sg21
g22
sbag7
(g8
g9
NtRp2235
(dp2236
g12
g13
sg14
S'Elephant'
p2237
sg16
I400
sg17
g13
sg18
g13
sg19
S'C:\\Windows\\Fonts\\ELEPHNT.TTF'
p2238
sg21
g22
sbag7
(g8
g9
NtRp2239
(dp2240
g12
g49
sg14
S'Rockwell'
p2241
sg16
I400
sg17
g13
sg18
g13
sg19
S'C:\\Windows\\Fonts\\ROCKI.TTF'
p2242
sg21
g22
sbag7
(g8
g9
NtRp2243
(dp2244
g12
g13
sg14
S'OCR A Extended'
p2245
sg16
I400
sg17
g13
sg18
g13
sg19
S'C:\\Windows\\Fonts\\OCRAEXT.TTF'
p2246
sg21
g22
sbag7
(g8
g9
NtRp2247
(dp2248
g12
g49
sg14
S'Bell MT'
p2249
sg16
I400
sg17
g13
sg18
g13
sg19
S'C:\\Windows\\Fonts\\BELLI.TTF'
p2250
sg21
g22
sbag7
(g8
g9
NtRp2251
(dp2252
g12
g13
sg14
S'Eras Bold ITC'
p2253
sg16
I700
sg17
g13
sg18
g13
sg19
S'C:\\Windows\\Fonts\\ERASBD.TTF'
p2254
sg21
g22
sbag7
(g8
g9
NtRp2255
(dp2256
g12
g13
sg14
S'AngsanaUPC'
p2257
sg16
I700
sg17
g13
sg18
g13
sg19
S'C:\\Windows\\Fonts\\angsaub.ttf'
p2258
sg21
g22
sbag7
(g8
g9
NtRp2259
(dp2260
g12
g49
sg14
S'Garamond'
p2261
sg16
I400
sg17
g13
sg18
g13
sg19
S'C:\\Windows\\Fonts\\GARAIT.TTF'
p2262
sg21
g22
sbag7
(g8
g9
NtRp2263
(dp2264
g12
g13
sg14
S'Lao UI'
p2265
sg16
I700
sg17
g13
sg18
g13
sg19
S'C:\\Windows\\Fonts\\LaoUIb.ttf'
p2266
sg21
g22
sbag7
(g8
g9
NtRp2267
(dp2268
g12
g13
sg14
S'Playbill'
p2269
sg16
I400
sg17
g13
sg18
g13
sg19
S'C:\\Windows\\Fonts\\PLAYBILL.TTF'
p2270
sg21
g22
sbag7
(g8
g9
NtRp2271
(dp2272
g12
g13
sg14
S'Algerian'
p2273
sg16
I400
sg17
g13
sg18
g13
sg19
S'c:\\windows\\fonts\\alger.ttf'
p2274
sg21
g22
sbag7
(g8
g9
NtRp2275
(dp2276
g12
g13
sg14
S'Matura MT Script Capitals'
p2277
sg16
I400
sg17
g13
sg18
g13
sg19
S'c:\\windows\\fonts\\maturasc.ttf'
p2278
sg21
g22
sbag7
(g8
g9
NtRp2279
(dp2280
g12
g13
sg14
S'Cordia New'
p2281
sg16
I400
sg17
g13
sg18
g13
sg19
S'C:\\Windows\\Fonts\\cordia.ttf'
p2282
sg21
g22
sbag7
(g8
g9
NtRp2283
(dp2284
g12
g49
sg14
S'CordiaUPC'
p2285
sg16
I400
sg17
g13
sg18
g13
sg19
S'c:\\windows\\fonts\\cordiaui.ttf'
p2286
sg21
g22
sbag7
(g8
g9
NtRp2287
(dp2288
g12
g114
sg14
S'Helvetica Neue LT Std'
p2289
sg16
I200
sg17
g256
sg18
g13
sg19
S'c:\\windows\\fonts\\helveticaneueltstd-ultltcno.otf'
p2290
sg21
g22
sbag7
(g8
g9
NtRp2291
(dp2292
g12
g13
sg14
S'Garamond'
p2293
sg16
I400
sg17
g13
sg18
g13
sg19
S'C:\\Windows\\Fonts\\GARA.TTF'
p2294
sg21
g22
sbag7
(g8
g9
NtRp2295
(dp2296
g12
g13
sg14
S'Helvetica Neue LT Std'
p2297
sg16
I400
sg17
g13
sg18
g13
sg19
S'c:\\windows\\fonts\\helveticaneueltstd-ex.otf'
p2298
sg21
g22
sbag7
(g8
g9
NtRp2299
(dp2300
g12
g13
sg14
S'Helvetica Neue LT Std'
p2301
sg16
I800
sg17
g13
sg18
g13
sg19
S'c:\\windows\\fonts\\helveticaneueltstd-hv.otf'
p2302
sg21
g22
sbag7
(g8
g9
NtRp2303
(dp2304
g12
g13
sg14
S'Palace Script MT'
p2305
sg16
I400
sg17
g13
sg18
g13
sg19
S'c:\\windows\\fonts\\palscri.ttf'
p2306
sg21
g22
sbag7
(g8
g9
NtRp2307
(dp2308
g12
g13
sg14
S'Century Gothic'
p2309
sg16
I400
sg17
g13
sg18
g13
sg19
S'c:\\windows\\fonts\\gothic.ttf'
p2310
sg21
g22
sbag7
(g8
g9
NtRp2311
(dp2312
g12
g13
sg14
S'Helvetica Neue LT Std'
p2313
sg16
I500
sg17
g13
sg18
g13
sg19
S'C:\\Windows\\Fonts\\HelveticaNeueLTStd-Roman.otf'
p2314
sg21
g22
sbag7
(g8
g9
NtRp2315
(dp2316
g12
g13
sg14
S'Helvetica Neue LT Std'
p2317
sg16
I700
sg17
g256
sg18
g13
sg19
S'C:\\Windows\\Fonts\\HelveticaNeueLTStd-BdCn.otf'
p2318
sg21
g22
sbag7
(g8
g9
NtRp2319
(dp2320
g12
g13
sg14
S'Shonar Bangla'
p2321
sg16
I700
sg17
g13
sg18
g13
sg19
S'C:\\Windows\\Fonts\\Shonarb.ttf'
p2322
sg21
g22
sbag7
(g8
g9
NtRp2323
(dp2324
g12
g13
sg14
S'Webdings'
p2325
sg16
I400
sg17
g13
sg18
g13
sg19
S'C:\\Windows\\Fonts\\webdings.ttf'
p2326
sg21
g22
sbag7
(g8
g9
NtRp2327
(dp2328
g12
g13
sg14
S'Perpetua'
p2329
sg16
I400
sg17
g13
sg18
g13
sg19
S'c:\\windows\\fonts\\per_____.ttf'
p2330
sg21
g22
sbag7
(g8
g9
NtRp2331
(dp2332
g12
g13
sg14
S'Californian FB'
p2333
sg16
I700
sg17
g13
sg18
g13
sg19
S'c:\\windows\\fonts\\califb.ttf'
p2334
sg21
g22
sbag7
(g8
g9
NtRp2335
(dp2336
g12
g13
sg14
S'Showcard Gothic'
p2337
sg16
I400
sg17
g13
sg18
g13
sg19
S'C:\\Windows\\Fonts\\SHOWG.TTF'
p2338
sg21
g22
sbag7
(g8
g9
NtRp2339
(dp2340
g12
g49
sg14
S'Lucida Fax'
p2341
sg16
I400
sg17
g13
sg18
g13
sg19
S'c:\\windows\\fonts\\lfaxi.ttf'
p2342
sg21
g22
sbag7
(g8
g9
NtRp2343
(dp2344
g12
g13
sg14
S'Franklin Gothic Heavy'
p2345
sg16
I800
sg17
g13
sg18
g13
sg19
S'c:\\windows\\fonts\\frahv.ttf'
p2346
sg21
g22
sbag7
(g8
g9
NtRp2347
(dp2348
g12
g13
sg14
S'Helvetica Neue LT Std'
p2349
sg16
I500
sg17
g13
sg18
g13
sg19
S'c:\\windows\\fonts\\helveticaneueltstd-roman.otf'
p2350
sg21
g22
sbag7
(g8
g9
NtRp2351
(dp2352
g12
g49
sg14
S'Georgia'
p2353
sg16
I700
sg17
g13
sg18
g13
sg19
S'c:\\windows\\fonts\\georgiaz.ttf'
p2354
sg21
g22
sbag7
(g8
g9
NtRp2355
(dp2356
g12
g13
sg14
S'Lao UI'
p2357
sg16
I400
sg17
g13
sg18
g13
sg19
S'C:\\Windows\\Fonts\\LaoUI.ttf'
p2358
sg21
g22
sbag7
(g8
g9
NtRp2359
(dp2360
g12
g13
sg14
S'Andalus'
p2361
sg16
I400
sg17
g13
sg18
g13
sg19
S'C:\\Windows\\Fonts\\andlso.ttf'
p2362
sg21
g22
sbag7
(g8
g9
NtRp2363
(dp2364
g12
g13
sg14
S'Informal Roman'
p2365
sg16
I500
sg17
g13
sg18
g13
sg19
S'C:\\Windows\\Fonts\\INFROMAN.TTF'
p2366
sg21
g22
sbag7
(g8
g9
NtRp2367
(dp2368
g12
g13
sg14
S'Vani'
p2369
sg16
I700
sg17
g13
sg18
g13
sg19
S'c:\\windows\\fonts\\vanib.ttf'
p2370
sg21
g22
sbag7
(g8
g9
NtRp2371
(dp2372
g12
g13
sg14
S'MS Reference Specialty'
p2373
sg16
I400
sg17
g13
sg18
g13
sg19
S'c:\\windows\\fonts\\refspcl.ttf'
p2374
sg21
g22
sbag7
(g8
g9
NtRp2375
(dp2376
g12
g49
sg14
S'Utsaah'
p2377
sg16
I700
sg17
g13
sg18
g13
sg19
S'C:\\Windows\\Fonts\\utsaahbi.ttf'
p2378
sg21
g22
sbag7
(g8
g9
NtRp2379
(dp2380
g12
g49
sg14
S'Goudy Old Style'
p2381
sg16
I400
sg17
g13
sg18
g13
sg19
S'c:\\windows\\fonts\\goudosi.ttf'
p2382
sg21
g22
sbag7
(g8
g9
NtRp2383
(dp2384
g12
g13
sg14
S'Lucida Bright'
p2385
sg16
I400
sg17
g13
sg18
g13
sg19
S'c:\\windows\\fonts\\lbrite.ttf'
p2386
sg21
g22
sbag7
(g8
g9
NtRp2387
(dp2388
g12
g13
sg14
S'Centaur'
p2389
sg16
I400
sg17
g13
sg18
g13
sg19
S'C:\\Windows\\Fonts\\CENTAUR.TTF'
p2390
sg21
g22
sbag7
(g8
g9
NtRp2391
(dp2392
g12
g13
sg14
S'Kokila'
p2393
sg16
I400
sg17
g13
sg18
g13
sg19
S'C:\\Windows\\Fonts\\kokila.ttf'
p2394
sg21
g22
sbag7
(g8
g9
NtRp2395
(dp2396
g12
g13
sg14
S'Verdana'
p2397
sg16
I400
sg17
g13
sg18
g13
sg19
S'C:\\Windows\\Fonts\\verdana.ttf'
p2398
sg21
g22
sbag7
(g8
g9
NtRp2399
(dp2400
g12
g13
sg14
S'French Script MT'
p2401
sg16
I400
sg17
g13
sg18
g13
sg19
S'c:\\windows\\fonts\\frscript.ttf'
p2402
sg21
g22
sbag7
(g8
g9
NtRp2403
(dp2404
g12
g13
sg14
S'Rockwell'
p2405
sg16
I400
sg17
g13
sg18
g13
sg19
S'C:\\Windows\\Fonts\\ROCK.TTF'
p2406
sg21
g22
sbag7
(g8
g9
NtRp2407
(dp2408
g12
g49
sg14
S'Arial'
p2409
sg16
I700
sg17
g256
sg18
g13
sg19
S'C:\\Windows\\Fonts\\ARIALNBI.TTF'
p2410
sg21
g22
sbag7
(g8
g9
NtRp2411
(dp2412
g12
g13
sg14
S'Bodoni MT'
p2413
sg16
I900
sg17
g13
sg18
g13
sg19
S'c:\\windows\\fonts\\bod_blar.ttf'
p2414
sg21
g22
sbag7
(g8
g9
NtRp2415
(dp2416
g12
g13
sg14
S'Copperplate Gothic Bold'
p2417
sg16
I700
sg17
g13
sg18
g13
sg19
S'c:\\windows\\fonts\\coprgtb.ttf'
p2418
sg21
g22
sbag7
(g8
g9
NtRp2419
(dp2420
g12
g49
sg14
S'Goudy Old Style'
p2421
sg16
I400
sg17
g13
sg18
g13
sg19
S'C:\\Windows\\Fonts\\GOUDOSI.TTF'
p2422
sg21
g22
sbag7
(g8
g9
NtRp2423
(dp2424
g12
g13
sg14
S'Harrington'
p2425
sg16
I400
sg17
g13
sg18
g13
sg19
S'C:\\Windows\\Fonts\\HARNGTON.TTF'
p2426
sg21
g22
sbag7
(g8
g9
NtRp2427
(dp2428
g12
g13
sg14
S'Gill Sans MT Condensed'
p2429
sg16
I400
sg17
g256
sg18
g13
sg19
S'c:\\windows\\fonts\\gilc____.ttf'
p2430
sg21
g22
sbag7
(g8
g9
NtRp2431
(dp2432
g12
g114
sg14
S'Helvetica Neue LT Std'
p2433
sg16
I200
sg17
g13
sg18
g13
sg19
S'c:\\windows\\fonts\\helveticaneueltstd-ultltexo.otf'
p2434
sg21
g22
sbag7
(g8
g9
NtRp2435
(dp2436
g12
g49
sg14
S'Bodoni MT'
p2437
sg16
I700
sg17
g13
sg18
g13
sg19
S'C:\\Windows\\Fonts\\BOD_BI.TTF'
p2438
sg21
g22
sbag7
(g8
g9
NtRp2439
(dp2440
g12
g13
sg14
S'Parchment'
p2441
sg16
I400
sg17
g13
sg18
g13
sg19
S'C:\\Windows\\Fonts\\PARCHM.TTF'
p2442
sg21
g22
sbag7
(g8
g9
NtRp2443
(dp2444
g12
g13
sg14
S'Mistral'
p2445
sg16
I400
sg17
g13
sg18
g13
sg19
S'c:\\windows\\fonts\\mistral.ttf'
p2446
sg21
g22
sbag7
(g8
g9
NtRp2447
(dp2448
g12
g49
sg14
S'Browallia New'
p2449
sg16
I700
sg17
g13
sg18
g13
sg19
S'c:\\windows\\fonts\\browaz.ttf'
p2450
sg21
g22
sbag7
(g8
g9
NtRp2451
(dp2452
g12
g13
sg14
S'Rockwell Condensed'
p2453
sg16
I400
sg17
g256
sg18
g13
sg19
S'c:\\windows\\fonts\\rocc____.ttf'
p2454
sg21
g22
sbag7
(g8
g9
NtRp2455
(dp2456
g12
g13
sg14
S'CordiaUPC'
p2457
sg16
I400
sg17
g13
sg18
g13
sg19
S'c:\\windows\\fonts\\cordiau.ttf'
p2458
sg21
g22
sbag7
(g8
g9
NtRp2459
(dp2460
g12
g13
sg14
S'EucrosiaUPC'
p2461
sg16
I700
sg17
g13
sg18
g13
sg19
S'c:\\windows\\fonts\\upceb.ttf'
p2462
sg21
g22
sbag7
(g8
g9
NtRp2463
(dp2464
g12
g49
sg14
S'Vivaldi'
p2465
sg16
I400
sg17
g13
sg18
g13
sg19
S'C:\\Windows\\Fonts\\VIVALDII.TTF'
p2466
sg21
g22
sbag7
(g8
g9
NtRp2467
(dp2468
g12
g13
sg14
S'Optima Bold'
p2469
sg16
I700
sg17
g13
sg18
g13
sg19
S'C:\\Windows\\Fonts\\OPB_____.TTF'
p2470
sg21
g22
sbag7
(g8
g9
NtRp2471
(dp2472
g12
g13
sg14
S'Bookman Old Style'
p2473
sg16
I400
sg17
g13
sg18
g13
sg19
S'C:\\Windows\\Fonts\\BOOKOS.TTF'
p2474
sg21
g22
sbag7
(g8
g9
NtRp2475
(dp2476
g12
g13
sg14
S'Optima LT Std'
p2477
sg16
I500
sg17
g13
sg18
g13
sg19
S'C:\\Windows\\Fonts\\OptimaLTStd.otf'
p2478
sg21
g22
sbag7
(g8
g9
NtRp2479
(dp2480
g12
g13
sg14
S'Tahoma'
p2481
sg16
I400
sg17
g13
sg18
g13
sg19
S'C:\\Windows\\Fonts\\tahoma.ttf'
p2482
sg21
g22
sbag7
(g8
g9
NtRp2483
(dp2484
g12
g13
sg14
S'Magneto'
p2485
sg16
I700
sg17
g13
sg18
g13
sg19
S'C:\\Windows\\Fonts\\MAGNETOB.TTF'
p2486
sg21
g22
sbag7
(g8
g9
NtRp2487
(dp2488
g12
g13
sg14
S'Tw Cen MT Condensed'
p2489
sg16
I400
sg17
g256
sg18
g13
sg19
S'c:\\windows\\fonts\\tccm____.ttf'
p2490
sg21
g22
sbag7
(g8
g9
NtRp2491
(dp2492
g12
g13
sg14
S'Gill Sans MT Ext Condensed Bold'
p2493
sg16
I700
sg17
g256
sg18
g13
sg19
S'c:\\windows\\fonts\\glsnecb.ttf'
p2494
sg21
g22
sbag7
(g8
g9
NtRp2495
(dp2496
g12
g114
sg14
S'Helvetica Neue LT Std'
p2497
sg16
I900
sg17
g256
sg18
g13
sg19
S'c:\\windows\\fonts\\helveticaneueltstd-xblkcno.otf'
p2498
sg21
g22
sbag7
(g8
g9
NtRp2499
(dp2500
g12
g49
sg14
S'Angsana New'
p2501
sg16
I700
sg17
g13
sg18
g13
sg19
S'c:\\windows\\fonts\\angsaz.ttf'
p2502
sg21
g22
sbag7
(g8
g9
NtRp2503
(dp2504
g12
g13
sg14
S'Franklin Gothic Medium Cond'
p2505
sg16
I500
sg17
g256
sg18
g13
sg19
S'C:\\Windows\\Fonts\\FRAMDCN.TTF'
p2506
sg21
g22
sbag7
(g8
g9
NtRp2507
(dp2508
g12
g49
sg14
S'Lucida Sans'
p2509
sg16
I700
sg17
g13
sg18
g13
sg19
S'c:\\windows\\fonts\\lsansdi.ttf'
p2510
sg21
g22
sbag7
(g8
g9
NtRp2511
(dp2512
g12
g13
sg14
S'Gill Sans MT'
p2513
sg16
I400
sg17
g13
sg18
g13
sg19
S'C:\\Windows\\Fonts\\GIL_____.TTF'
p2514
sg21
g22
sbag7
(g8
g9
NtRp2515
(dp2516
g12
g13
sg14
S'Footlight MT Light'
p2517
sg16
I200
sg17
g13
sg18
g13
sg19
S'C:\\Windows\\Fonts\\FTLTLT.TTF'
p2518
sg21
g22
sbag7
(g8
g9
NtRp2519
(dp2520
g12
g13
sg14
S'Century Gothic'
p2521
sg16
I700
sg17
g13
sg18
g13
sg19
S'c:\\windows\\fonts\\gothicb.ttf'
p2522
sg21
g22
sbag7
(g8
g9
NtRp2523
(dp2524
g12
g49
sg14
S'Vivaldi'
p2525
sg16
I400
sg17
g13
sg18
g13
sg19
S'c:\\windows\\fonts\\vivaldii.ttf'
p2526
sg21
g22
sbag7
(g8
g9
NtRp2527
(dp2528
g12
g13
sg14
S'Bookman Old Style'
p2529
sg16
I400
sg17
g13
sg18
g13
sg19
S'c:\\windows\\fonts\\bookos.ttf'
p2530
sg21
g22
sbag7
(g8
g9
NtRp2531
(dp2532
g12
g49
sg14
S'Californian FB'
p2533
sg16
I400
sg17
g13
sg18
g13
sg19
S'C:\\Windows\\Fonts\\CALIFI.TTF'
p2534
sg21
g22
sbag7
(g8
g9
NtRp2535
(dp2536
g12
g13
sg14
S'Helvetica Neue LT Std'
p2537
sg16
I200
sg17
g13
sg18
g13
sg19
S'c:\\windows\\fonts\\helveticaneueltstd-ultltex.otf'
p2538
sg21
g22
sbag7
(g8
g9
NtRp2539
(dp2540
g12
g13
sg14
S'Berlin Sans FB Demi'
p2541
sg16
I700
sg17
g13
sg18
g13
sg19
S'c:\\windows\\fonts\\brlnsdb.ttf'
p2542
sg21
g22
sbag7
(g8
g9
NtRp2543
(dp2544
g12
g13
sg14
S'Perpetua'
p2545
sg16
I700
sg17
g13
sg18
g13
sg19
S'c:\\windows\\fonts\\perb____.ttf'
p2546
sg21
g22
sbag7
(g8
g9
NtRp2547
(dp2548
g12
g114
sg14
S'Helvetica Neue LT Std'
p2549
sg16
I500
sg17
g256
sg18
g13
sg19
S'c:\\windows\\fonts\\helveticaneueltstd-mdcno.otf'
p2550
sg21
g22
sbag7
(g8
g9
NtRp2551
(dp2552
g12
g13
sg14
S'Helvetica Neue LT Std'
p2553
sg16
I700
sg17
g13
sg18
g13
sg19
S'C:\\Windows\\Fonts\\HelveticaNeueLTStd-BdEx.otf'
p2554
sg21
g22
sbag7
(g8
g9
NtRp2555
(dp2556
g12
g114
sg14
S'Helvetica Neue LT Std'
p2557
sg16
I500
sg17
g13
sg18
g13
sg19
S'c:\\windows\\fonts\\helveticaneueltstd-mdexo.otf'
p2558
sg21
g22
sbag7
(g8
g9
NtRp2559
(dp2560
g12
g49
sg14
S'Rage Italic'
p2561
sg16
I400
sg17
g13
sg18
g13
sg19
S'c:\\windows\\fonts\\rage.ttf'
p2562
sg21
g22
sbag7
(g8
g9
NtRp2563
(dp2564
g12
g49
sg14
S'Arial'
p2565
sg16
I700
sg17
g256
sg18
g13
sg19
S'c:\\windows\\fonts\\arialnbi.ttf'
p2566
sg21
g22
sbag7
(g8
g9
NtRp2567
(dp2568
g12
g13
sg14
S'Bodoni MT'
p2569
sg16
I700
sg17
g256
sg18
g13
sg19
S'c:\\windows\\fonts\\bod_cb.ttf'
p2570
sg21
g22
sbag7
(g8
g9
NtRp2571
(dp2572
g12
g13
sg14
S'Parchment'
p2573
sg16
I400
sg17
g13
sg18
g13
sg19
S'c:\\windows\\fonts\\parchm.ttf'
p2574
sg21
g22
sbag7
(g8
g9
NtRp2575
(dp2576
g12
g49
sg14
S'Harlow Solid Italic'
p2577
sg16
I400
sg17
g13
sg18
g13
sg19
S'c:\\windows\\fonts\\harlowsi.ttf'
p2578
sg21
g22
sbag7
(g8
g9
NtRp2579
(dp2580
g12
g13
sg14
S'Poor Richard'
p2581
sg16
I400
sg17
g13
sg18
g13
sg19
S'C:\\Windows\\Fonts\\POORICH.TTF'
p2582
sg21
g22
sbag7
(g8
g9
NtRp2583
(dp2584
g12
g13
sg14
S'Bodoni MT'
p2585
sg16
I400
sg17
g256
sg18
g13
sg19
S'C:\\Windows\\Fonts\\BOD_CR.TTF'
p2586
sg21
g22
sbag7
(g8
g9
NtRp2587
(dp2588
g12
g13
sg14
S'Showcard Gothic'
p2589
sg16
I400
sg17
g13
sg18
g13
sg19
S'c:\\windows\\fonts\\showg.ttf'
p2590
sg21
g22
sbag7
(g8
g9
NtRp2591
(dp2592
g12
g49
sg14
S'Arial'
p2593
sg16
I400
sg17
g256
sg18
g13
sg19
S'c:\\windows\\fonts\\arialni.ttf'
p2594
sg21
g22
sbag7
(g8
g9
NtRp2595
(dp2596
g12
g114
sg14
S'Helvetica Neue LT Std'
p2597
sg16
I700
sg17
g256
sg18
g13
sg19
S'C:\\Windows\\Fonts\\HelveticaNeueLTStd-BdCnO.otf'
p2598
sg21
g22
sbag7
(g8
g9
NtRp2599
(dp2600
g12
g49
sg14
S'Lucida Sans'
p2601
sg16
I700
sg17
g13
sg18
g13
sg19
S'C:\\Windows\\Fonts\\LSANSDI.TTF'
p2602
sg21
g22
sbag7
(g8
g9
NtRp2603
(dp2604
g12
g13
sg14
S'Helvetica Neue LT Std'
p2605
sg16
I800
sg17
g256
sg18
g13
sg19
S'c:\\windows\\fonts\\helveticaneueltstd-hvcn.otf'
p2606
sg21
g22
sbag7
(g8
g9
NtRp2607
(dp2608
g12
g49
sg14
S'Century Gothic'
p2609
sg16
I400
sg17
g13
sg18
g13
sg19
S'c:\\windows\\fonts\\gothici.ttf'
p2610
sg21
g22
sbag7
(g8
g9
NtRp2611
(dp2612
g12
g13
sg14
S'Rockwell Extra Bold'
p2613
sg16
I700
sg17
g13
sg18
g13
sg19
S'C:\\Windows\\Fonts\\ROCKEB.TTF'
p2614
sg21
g22
sbag7
(g8
g9
NtRp2615
(dp2616
g12
g114
sg14
S'Helvetica Neue LT Std'
p2617
sg16
I800
sg17
g256
sg18
g13
sg19
S'C:\\Windows\\Fonts\\HelveticaNeueLTStd-HvCnO.otf'
p2618
sg21
g22
sbag7
(g8
g9
NtRp2619
(dp2620
g12
g13
sg14
S'Lucida Sans'
p2621
sg16
I700
sg17
g13
sg18
g13
sg19
S'c:\\program files (x86)\\common files\\cisco systems\\client services framework\\jre\\lib\\fonts\\lucidasansdemibold.ttf'
p2622
sg21
g22
sbag7
(g8
g9
NtRp2623
(dp2624
g12
g114
sg14
S'Helvetica Neue LT Std'
p2625
sg16
I900
sg17
g13
sg18
g13
sg19
S'c:\\windows\\fonts\\helveticaneueltstd-blkexo.otf'
p2626
sg21
g22
sbag7
(g8
g9
NtRp2627
(dp2628
g12
g13
sg14
S'Eras Demi ITC'
p2629
sg16
I600
sg17
g13
sg18
g13
sg19
S'C:\\Windows\\Fonts\\ERASDEMI.TTF'
p2630
sg21
g22
sbag7
(g8
g9
NtRp2631
(dp2632
g12
g13
sg14
S'Lao UI'
p2633
sg16
I700
sg17
g13
sg18
g13
sg19
S'c:\\windows\\fonts\\laouib.ttf'
p2634
sg21
g22
sbag7
(g8
g9
NtRp2635
(dp2636
g12
g13
sg14
S'Lucida Bright'
p2637
sg16
I400
sg17
g13
sg18
g13
sg19
S'C:\\Windows\\Fonts\\LBRITE.TTF'
p2638
sg21
g22
sbag7
(g8
g9
NtRp2639
(dp2640
g12
g13
sg14
S'Forte'
p2641
sg16
I400
sg17
g13
sg18
g13
sg19
S'c:\\windows\\fonts\\forte.ttf'
p2642
sg21
g22
sbag7
(g8
g9
NtRp2643
(dp2644
g12
g13
sg14
S'Palatino Linotype'
p2645
sg16
I400
sg17
g13
sg18
g13
sg19
S'c:\\windows\\fonts\\pala.ttf'
p2646
sg21
g22
sbag7
(g8
g9
NtRp2647
(dp2648
g12
g114
sg14
S'Helvetica Neue LT Std'
p2649
sg16
I800
sg17
g13
sg18
g13
sg19
S'C:\\Windows\\Fonts\\HelveticaNeueLTStd-HvExO.otf'
p2650
sg21
g22
sbag7
(g8
g9
NtRp2651
(dp2652
g12
g13
sg14
S'Agency FB'
p2653
sg16
I400
sg17
g13
sg18
g13
sg19
S'C:\\Windows\\Fonts\\AGENCYR.TTF'
p2654
sg21
g22
sbag7
(g8
g9
NtRp2655
(dp2656
g12
g13
sg14
S'Goudy Old Style'
p2657
sg16
I400
sg17
g13
sg18
g13
sg19
S'c:\\windows\\fonts\\goudos.ttf'
p2658
sg21
g22
sbag7
(g8
g9
NtRp2659
(dp2660
g12
g13
sg14
S'Tw Cen MT Condensed Extra Bold'
p2661
sg16
I700
sg17
g256
sg18
g13
sg19
S'c:\\windows\\fonts\\tcceb.ttf'
p2662
sg21
g22
sbag7
(g8
g9
NtRp2663
(dp2664
g12
g13
sg14
S'Kunstler Script'
p2665
sg16
I400
sg17
g13
sg18
g13
sg19
S'c:\\windows\\fonts\\kunstler.ttf'
p2666
sg21
g22
sbag7
(g8
g9
NtRp2667
(dp2668
g12
g13
sg14
S'Arial Unicode MS'
p2669
sg16
I400
sg17
g13
sg18
g13
sg19
S'C:\\Windows\\Fonts\\ARIALUNI.TTF'
p2670
sg21
g22
sbag7
(g8
g9
NtRp2671
(dp2672
g12
g13
sg14
S'Algerian'
p2673
sg16
I400
sg17
g13
sg18
g13
sg19
S'C:\\Windows\\Fonts\\ALGER.TTF'
p2674
sg21
g22
sbag7
(g8
g9
NtRp2675
(dp2676
g12
g13
sg14
S'Rod'
p2677
sg16
I400
sg17
g13
sg18
g13
sg19
S'c:\\windows\\fonts\\rod.ttf'
p2678
sg21
g22
sbag7
(g8
g9
NtRp2679
(dp2680
g12
g13
sg14
S'Stencil'
p2681
sg16
I400
sg17
g13
sg18
g13
sg19
S'c:\\windows\\fonts\\stencil.ttf'
p2682
sg21
g22
sbag7
(g8
g9
NtRp2683
(dp2684
g12
g49
sg14
S'Helvetica Neue LT Std'
p2685
sg16
I400
sg17
g13
sg18
g13
sg19
S'c:\\windows\\fonts\\helveticaneueltstd-it.otf'
p2686
sg21
g22
sbag7
(g8
g9
NtRp2687
(dp2688
g12
g13
sg14
S'Segoe UI Symbol'
p2689
sg16
I400
sg17
g13
sg18
g13
sg19
S'c:\\windows\\fonts\\seguisym.ttf'
p2690
sg21
g22
sbag7
(g8
g9
NtRp2691
(dp2692
g12
g13
sg14
S'Bodoni MT'
p2693
sg16
I900
sg17
g13
sg18
g13
sg19
S'C:\\Windows\\Fonts\\BOD_BLAR.TTF'
p2694
sg21
g22
sbag7
(g8
g9
NtRp2695
(dp2696
g12
g13
sg14
S'Snap ITC'
p2697
sg16
I400
sg17
g13
sg18
g13
sg19
S'c:\\windows\\fonts\\snap____.ttf'
p2698
sg21
g22
sbag7
(g8
g9
NtRp2699
(dp2700
g12
g49
sg14
S'Candara'
p2701
sg16
I700
sg17
g13
sg18
g13
sg19
S'c:\\windows\\fonts\\candaraz.ttf'
p2702
sg21
g22
sbag7
(g8
g9
NtRp2703
(dp2704
g12
g13
sg14
S'Agency FB'
p2705
sg16
I400
sg17
g13
sg18
g13
sg19
S'c:\\windows\\fonts\\agencyr.ttf'
p2706
sg21
g22
sbag7
(g8
g9
NtRp2707
(dp2708
g12
g13
sg14
S'Edwardian Script ITC'
p2709
sg16
I400
sg17
g13
sg18
g13
sg19
S'c:\\windows\\fonts\\itcedscr.ttf'
p2710
sg21
g22
sbag7
(g8
g9
NtRp2711
(dp2712
g12
g13
sg14
S'Edwardian Script ITC'
p2713
sg16
I400
sg17
g13
sg18
g13
sg19
S'C:\\Windows\\Fonts\\ITCEDSCR.TTF'
p2714
sg21
g22
sbag7
(g8
g9
NtRp2715
(dp2716
g12
g13
sg14
S'Helvetica Neue LT Std'
p2717
sg16
I200
sg17
g256
sg18
g13
sg19
S'c:\\windows\\fonts\\helveticaneueltstd-ltcn.otf'
p2718
sg21
g22
sbag7
(g8
g9
NtRp2719
(dp2720
g12
g13
sg14
S'MT Extra'
p2721
sg16
I400
sg17
g13
sg18
g13
sg19
S'c:\\program files (x86)\\common files\\microsoft shared\\equation\\mtextra.ttf'
p2722
sg21
g22
sbag7
(g8
g9
NtRp2723
(dp2724
g12
g49
sg14
S'Helvetica Neue LT Std'
p2725
sg16
I400
sg17
g13
sg18
g13
sg19
S'c:\\windows\\fonts\\helveticaneueltstd-thit.otf'
p2726
sg21
g22
sbag7
(g8
g9
NtRp2727
(dp2728
g12
g13
sg14
S'Goudy Stout'
p2729
sg16
I400
sg17
g13
sg18
g13
sg19
S'C:\\Windows\\Fonts\\GOUDYSTO.TTF'
p2730
sg21
g22
sbag7
(g8
g9
NtRp2731
(dp2732
g12
g13
sg14
S'Khmer UI'
p2733
sg16
I700
sg17
g13
sg18
g13
sg19
S'C:\\Windows\\Fonts\\KhmerUIb.ttf'
p2734
sg21
g22
sbag7
(g8
g9
NtRp2735
(dp2736
g12
g13
sg14
S'Old English Text MT'
p2737
sg16
I400
sg17
g13
sg18
g13
sg19
S'c:\\windows\\fonts\\oldengl.ttf'
p2738
sg21
g22
sbag7
(g8
g9
NtRp2739
(dp2740
g12
g13
sg14
S'Georgia'
p2741
sg16
I700
sg17
g13
sg18
g13
sg19
S'c:\\windows\\fonts\\georgiab.ttf'
p2742
sg21
g22
sbag7
(g8
g9
NtRp2743
(dp2744
g12
g49
sg14
S'Helvetica Neue LT Std'
p2745
sg16
I200
sg17
g13
sg18
g13
sg19
S'C:\\Windows\\Fonts\\HelveticaNeueLTStd-LtIt.otf'
p2746
sg21
g22
sbag7
(g8
g9
NtRp2747
(dp2748
g12
g13
sg14
S'FangSong'
p2749
sg16
I400
sg17
g13
sg18
g13
sg19
S'C:\\Windows\\Fonts\\simfang.ttf'
p2750
sg21
g22
sbag7
(g8
g9
NtRp2751
(dp2752
g12
g13
sg14
S'Nina'
p2753
sg16
I700
sg17
g13
sg18
g13
sg19
S'c:\\windows\\fonts\\ninab.ttf'
p2754
sg21
g22
sbag7
(g8
g9
NtRp2755
(dp2756
g12
g13
sg14
S'Helvetica Neue LT Std'
p2757
sg16
I500
sg17
g13
sg18
g13
sg19
S'c:\\windows\\fonts\\helveticaneueltstd-md.otf'
p2758
sg21
g22
sbag7
(g8
g9
NtRp2759
(dp2760
g12
g13
sg14
S'Niagara Engraved'
p2761
sg16
I400
sg17
g13
sg18
g13
sg19
S'c:\\windows\\fonts\\niageng.ttf'
p2762
sg21
g22
sbag7
(g8
g9
NtRp2763
(dp2764
g12
g13
sg14
S'MS Reference Specialty'
p2765
sg16
I400
sg17
g13
sg18
g13
sg19
S'C:\\Windows\\Fonts\\REFSPCL.TTF'
p2766
sg21
g22
sbag7
(g8
g9
NtRp2767
(dp2768
g12
g49
sg14
S'Helvetica Neue LT Std'
p2769
sg16
I700
sg17
g13
sg18
g13
sg19
S'c:\\windows\\fonts\\helveticaneueltstd-bdit.otf'
p2770
sg21
g22
sbag7
(g8
g9
NtRp2771
(dp2772
g12
g49
sg14
S'Rockwell'
p2773
sg16
I700
sg17
g13
sg18
g13
sg19
S'C:\\Windows\\Fonts\\ROCKBI.TTF'
p2774
sg21
g22
sbag7
(g8
g9
NtRp2775
(dp2776
g12
g13
sg14
S'Lucida Sans'
p2777
sg16
I700
sg17
g13
sg18
g13
sg19
S'c:\\windows\\fonts\\lsansd.ttf'
p2778
sg21
g22
sbag7
(g8
g9
NtRp2779
(dp2780
g12
g13
sg14
S'Rockwell Condensed'
p2781
sg16
I400
sg17
g256
sg18
g13
sg19
S'C:\\Windows\\Fonts\\ROCC____.TTF'
p2782
sg21
g22
sbag7
(g8
g9
NtRp2783
(dp2784
g12
g13
sg14
S'Monotype Corsiva'
p2785
sg16
I400
sg17
g13
sg18
g13
sg19
S'C:\\Windows\\Fonts\\MTCORSVA.TTF'
p2786
sg21
g22
sbag7
(g8
g9
NtRp2787
(dp2788
g12
g114
sg14
S'Helvetica LT Std'
p2789
sg16
I900
sg17
g256
sg18
g13
sg19
S'c:\\windows\\fonts\\helveticaltstd-blkcondobl.otf'
p2790
sg21
g22
sbag7
(g8
g9
NtRp2791
(dp2792
g12
g13
sg14
S'MS Outlook'
p2793
sg16
I400
sg17
g13
sg18
g13
sg19
S'C:\\Windows\\Fonts\\OUTLOOK.TTF'
p2794
sg21
g22
sbag7
(g8
g9
NtRp2795
(dp2796
g12
g49
sg14
S'Lucida Bright'
p2797
sg16
I400
sg17
g13
sg18
g13
sg19
S'c:\\windows\\fonts\\lbritei.ttf'
p2798
sg21
g22
sbag7
(g8
g9
NtRp2799
(dp2800
g12
g49
sg14
S'Helvetica Neue LT Std'
p2801
sg16
I800
sg17
g13
sg18
g13
sg19
S'C:\\Windows\\Fonts\\HelveticaNeueLTStd-HvIt.otf'
p2802
sg21
g22
sbag7
(g8
g9
NtRp2803
(dp2804
g12
g13
sg14
S'Bodoni MT'
p2805
sg16
I400
sg17
g13
sg18
g13
sg19
S'C:\\Windows\\Fonts\\BOD_R.TTF'
p2806
sg21
g22
sbag7
(g8
g9
NtRp2807
(dp2808
g12
g49
sg14
S'High Tower Text'
p2809
sg16
I400
sg17
g13
sg18
g13
sg19
S'c:\\windows\\fonts\\htowerti.ttf'
p2810
sg21
g22
sbag7
(g8
g9
NtRp2811
(dp2812
g12
g13
sg14
S'Onyx'
p2813
sg16
I400
sg17
g13
sg18
g13
sg19
S'c:\\windows\\fonts\\onyx.ttf'
p2814
sg21
g22
sbag7
(g8
g9
NtRp2815
(dp2816
g12
g13
sg14
S'Kristen ITC'
p2817
sg16
I400
sg17
g13
sg18
g13
sg19
S'c:\\windows\\fonts\\itckrist.ttf'
p2818
sg21
g22
sbag7
(g8
g9
NtRp2819
(dp2820
g12
g13
sg14
S'Lucida Bright'
p2821
sg16
I700
sg17
g13
sg18
g13
sg19
S'c:\\windows\\fonts\\lbrited.ttf'
p2822
sg21
g22
sbag7
(g8
g9
NtRp2823
(dp2824
g12
g13
sg14
S'Helvetica Neue LT Std'
p2825
sg16
I900
sg17
g256
sg18
g13
sg19
S'C:\\Windows\\Fonts\\HelveticaNeueLTStd-XBlkCn.otf'
p2826
sg21
g22
sbag7
(g8
g9
NtRp2827
(dp2828
g12
g13
sg14
S'Gill Sans MT Condensed'
p2829
sg16
I400
sg17
g256
sg18
g13
sg19
S'C:\\Windows\\Fonts\\GILC____.TTF'
p2830
sg21
g22
sbag7
(g8
g9
NtRp2831
(dp2832
g12
g13
sg14
S'Goudy Old Style'
p2833
sg16
I400
sg17
g13
sg18
g13
sg19
S'C:\\Windows\\Fonts\\GOUDOS.TTF'
p2834
sg21
g22
sbag7
(g8
g9
NtRp2835
(dp2836
g12
g13
sg14
S'Bradley Hand ITC'
p2837
sg16
I400
sg17
g13
sg18
g13
sg19
S'c:\\windows\\fonts\\bradhitc.ttf'
p2838
sg21
g22
sbag7
(g8
g9
NtRp2839
(dp2840
g12
g13
sg14
S'Helvetica Neue LT Std'
p2841
sg16
I400
sg17
g13
sg18
g13
sg19
S'c:\\windows\\fonts\\helveticaneueltstd-thex.otf'
p2842
sg21
g22
sbag7
(g8
g9
NtRp2843
(dp2844
g12
g13
sg14
S'Century'
p2845
sg16
I400
sg17
g13
sg18
g13
sg19
S'C:\\Windows\\Fonts\\CENTURY.TTF'
p2846
sg21
g22
sbag7
(g8
g9
NtRp2847
(dp2848
g12
g13
sg14
S'Britannic Bold'
p2849
sg16
I700
sg17
g13
sg18
g13
sg19
S'C:\\Windows\\Fonts\\BRITANIC.TTF'
p2850
sg21
g22
sbag7
(g8
g9
NtRp2851
(dp2852
g12
g114
sg14
S'Helvetica Neue LT Std'
p2853
sg16
I200
sg17
g13
sg18
g13
sg19
S'C:\\Windows\\Fonts\\HelveticaNeueLTStd-UltLtExO.otf'
p2854
sg21
g22
sbag7
(g8
g9
NtRp2855
(dp2856
g12
g13
sg14
S'Old English Text MT'
p2857
sg16
I400
sg17
g13
sg18
g13
sg19
S'C:\\Windows\\Fonts\\OLDENGL.TTF'
p2858
sg21
g22
sbag7
(g8
g9
NtRp2859
(dp2860
g12
g13
sg14
S'Raavi'
p2861
sg16
I400
sg17
g13
sg18
g13
sg19
S'C:\\Windows\\Fonts\\raavi.ttf'
p2862
sg21
g22
sbag7
(g8
g9
NtRp2863
(dp2864
g12
g13
sg14
S'Vladimir Script'
p2865
sg16
I400
sg17
g13
sg18
g13
sg19
S'c:\\windows\\fonts\\vladimir.ttf'
p2866
sg21
g22
sbag7
(g8
g9
NtRp2867
(dp2868
g12
g13
sg14
S'Arial'
p2869
sg16
I700
sg17
g256
sg18
g13
sg19
S'C:\\Windows\\Fonts\\ARIALNB.TTF'
p2870
sg21
g22
sbag7
(g8
g9
NtRp2871
(dp2872
g12
g13
sg14
S'Eras Bold ITC'
p2873
sg16
I700
sg17
g13
sg18
g13
sg19
S'c:\\windows\\fonts\\erasbd.ttf'
p2874
sg21
g22
sbag7
(g8
g9
NtRp2875
(dp2876
g12
g13
sg14
S'Bookshelf Symbol 7'
p2877
sg16
I400
sg17
g13
sg18
g13
sg19
S'c:\\windows\\fonts\\bssym7.ttf'
p2878
sg21
g22
sbag7
(g8
g9
NtRp2879
(dp2880
g12
g13
sg14
S'Plantagenet Cherokee'
p2881
sg16
I400
sg17
g13
sg18
g13
sg19
S'C:\\Windows\\Fonts\\plantc.ttf'
p2882
sg21
g22
sbag7
(g8
g9
NtRp2883
(dp2884
g12
g49
sg14
S'Century Schoolbook'
p2885
sg16
I700
sg17
g13
sg18
g13
sg19
S'c:\\windows\\fonts\\schlbkbi.ttf'
p2886
sg21
g22
sbag7
(g8
g9
NtRp2887
(dp2888
g12
g13
sg14
S'Iskoola Pota'
p2889
sg16
I700
sg17
g13
sg18
g13
sg19
S'C:\\Windows\\Fonts\\iskpotab.ttf'
p2890
sg21
g22
sbag7
(g8
g9
NtRp2891
(dp2892
g12
g13
sg14
S'Times New Roman'
p2893
sg16
I700
sg17
g13
sg18
g13
sg19
S'C:\\Windows\\Fonts\\timesbd.ttf'
p2894
sg21
g22
sbag7
(g8
g9
NtRp2895
(dp2896
g12
g13
sg14
S'Candara'
p2897
sg16
I400
sg17
g13
sg18
g13
sg19
S'C:\\Windows\\Fonts\\Candara.ttf'
p2898
sg21
g22
sbag7
(g8
g9
NtRp2899
(dp2900
g12
g49
sg14
S'Lucida Handwriting'
p2901
sg16
I400
sg17
g13
sg18
g13
sg19
S'c:\\windows\\fonts\\lhandw.ttf'
p2902
sg21
g22
sbag7
(g8
g9
NtRp2903
(dp2904
g12
g114
sg14
S'Helvetica Neue LT Std'
p2905
sg16
I900
sg17
g13
sg18
g13
sg19
S'C:\\Windows\\Fonts\\HelveticaNeueLTStd-BlkExO.otf'
p2906
sg21
g22
sbag7
(g8
g9
NtRp2907
(dp2908
g12
g13
sg14
S'Pristina'
p2909
sg16
I400
sg17
g13
sg18
g13
sg19
S'C:\\Windows\\Fonts\\PRISTINA.TTF'
p2910
sg21
g22
sbag7
(g8
g9
NtRp2911
(dp2912
g12
g13
sg14
S'Rockwell Extra Bold'
p2913
sg16
I700
sg17
g13
sg18
g13
sg19
S'c:\\windows\\fonts\\rockeb.ttf'
p2914
sg21
g22
sbag7
(g8
g9
NtRp2915
(dp2916
g12
g13
sg14
S'Rockwell'
p2917
sg16
I700
sg17
g13
sg18
g13
sg19
S'c:\\windows\\fonts\\rockb.ttf'
p2918
sg21
g22
sbag7
(g8
g9
NtRp2919
(dp2920
g12
g13
sg14
S'Playbill'
p2921
sg16
I400
sg17
g13
sg18
g13
sg19
S'c:\\windows\\fonts\\playbill.ttf'
p2922
sg21
g22
sbag7
(g8
g9
NtRp2923
(dp2924
g12
g13
sg14
S'Lucida Sans Typewriter'
p2925
sg16
I700
sg17
g13
sg18
g13
sg19
S'c:\\windows\\fonts\\ltypeb.ttf'
p2926
sg21
g22
sbag7
(g8
g9
NtRp2927
(dp2928
g12
g49
sg14
S'Century Gothic'
p2929
sg16
I700
sg17
g13
sg18
g13
sg19
S'C:\\Windows\\Fonts\\GOTHICBI.TTF'
p2930
sg21
g22
sbag7
(g8
g9
NtRp2931
(dp2932
g12
g13
sg14
S'Bodoni MT'
p2933
sg16
I400
sg17
g13
sg18
g13
sg19
S'c:\\windows\\fonts\\bod_r.ttf'
p2934
sg21
g22
sbag7
(g8
g9
NtRp2935
(dp2936
g12
g13
sg14
S'Bodoni MT'
p2937
sg16
I400
sg17
g13
sg18
g13
sg19
S'c:\\windows\\fonts\\bod_pstc.ttf'
p2938
sg21
g22
sbag7
(g8
g9
NtRp2939
(dp2940
g12
g114
sg14
S'Helvetica Neue LT Std'
p2941
sg16
I400
sg17
g256
sg18
g13
sg19
S'c:\\windows\\fonts\\helveticaneueltstd-cno.otf'
p2942
sg21
g22
sbag7
(g8
g9
NtRp2943
(dp2944
g12
g13
sg14
S'Helvetica Neue LT Std'
p2945
sg16
I400
sg17
g13
sg18
g13
sg19
S'C:\\Windows\\Fonts\\HelveticaNeueLTStd-ThEx.otf'
p2946
sg21
g22
sbag7
(g8
g9
NtRp2947
(dp2948
g12
g13
sg14
S'Freestyle Script'
p2949
sg16
I400
sg17
g13
sg18
g13
sg19
S'C:\\Windows\\Fonts\\FREESCPT.TTF'
p2950
sg21
g22
sbag7
(g8
g9
NtRp2951
(dp2952
g12
g13
sg14
S'Latha'
p2953
sg16
I700
sg17
g13
sg18
g13
sg19
S'C:\\Windows\\Fonts\\lathab.ttf'
p2954
sg21
g22
sbag7
(g8
g9
NtRp2955
(dp2956
g12
g13
sg14
S'Gabriola'
p2957
sg16
I400
sg17
g13
sg18
g13
sg19
S'c:\\windows\\fonts\\gabriola.ttf'
p2958
sg21
g22
sbag7
(g8
g9
NtRp2959
(dp2960
g12
g49
sg14
S'Perpetua'
p2961
sg16
I700
sg17
g13
sg18
g13
sg19
S'c:\\windows\\fonts\\perbi___.ttf'
p2962
sg21
g22
sbag7
(g8
g9
NtRp2963
(dp2964
g12
g13
sg14
S'Blackadder ITC'
p2965
sg16
I900
sg17
g13
sg18
g13
sg19
S'C:\\Windows\\Fonts\\ITCBLKAD.TTF'
p2966
sg21
g22
sbag7
(g8
g9
NtRp2967
(dp2968
g12
g13
sg14
S'Perpetua Titling MT'
p2969
sg16
I700
sg17
g13
sg18
g13
sg19
S'C:\\Windows\\Fonts\\PERTIBD.TTF'
p2970
sg21
g22
sbag7
(g8
g9
NtRp2971
(dp2972
g12
g13
sg14
S'Ravie'
p2973
sg16
I400
sg17
g13
sg18
g13
sg19
S'c:\\windows\\fonts\\ravie.ttf'
p2974
sg21
g22
sbag7
(g8
g9
NtRp2975
(dp2976
g12
g13
sg14
S'Optima LT Std'
p2977
sg16
I700
sg17
g13
sg18
g13
sg19
S'c:\\windows\\fonts\\optimaltstd-bold.otf'
p2978
sg21
g22
sbag7
(g8
g9
NtRp2979
(dp2980
g12
g13
sg14
S'Eras Demi ITC'
p2981
sg16
I600
sg17
g13
sg18
g13
sg19
S'c:\\windows\\fonts\\erasdemi.ttf'
p2982
sg21
g22
sbag7
(g8
g9
NtRp2983
(dp2984
g12
g49
sg14
S'Lucida Bright'
p2985
sg16
I700
sg17
g13
sg18
g13
sg19
S'C:\\Windows\\Fonts\\LBRITEDI.TTF'
p2986
sg21
g22
sbag7
(g8
g9
NtRp2987
(dp2988
g12
g13
sg14
S'Script MT Bold'
p2989
sg16
I700
sg17
g13
sg18
g13
sg19
S'c:\\windows\\fonts\\scriptbl.ttf'
p2990
sg21
g22
sbag7
(g8
g9
NtRp2991
(dp2992
g12
g49
sg14
S'Century Gothic'
p2993
sg16
I400
sg17
g13
sg18
g13
sg19
S'C:\\Windows\\Fonts\\GOTHICI.TTF'
p2994
sg21
g22
sbag7
(g8
g9
NtRp2995
(dp2996
g12
g13
sg14
S'Maiandra GD'
p2997
sg16
I400
sg17
g13
sg18
g13
sg19
S'C:\\Windows\\Fonts\\MAIAN.TTF'
p2998
sg21
g22
sbag7
(g8
g9
NtRp2999
(dp3000
g12
g49
sg14
S'Calisto MT'
p3001
sg16
I700
sg17
g13
sg18
g13
sg19
S'c:\\windows\\fonts\\calistbi.ttf'
p3002
sg21
g22
sbag7
(g8
g9
NtRp3003
(dp3004
g12
g13
sg14
S'Tw Cen MT Condensed'
p3005
sg16
I700
sg17
g256
sg18
g13
sg19
S'C:\\Windows\\Fonts\\TCCB____.TTF'
p3006
sg21
g22
sbag7
(g8
g9
NtRp3007
(dp3008
g12
g49
sg14
S'Harlow Solid Italic'
p3009
sg16
I400
sg17
g13
sg18
g13
sg19
S'C:\\Windows\\Fonts\\HARLOWSI.TTF'
p3010
sg21
g22
sbag7
(g8
g9
NtRp3011
(dp3012
g12
g13
sg14
S'Helvetica Neue LT Std'
p3013
sg16
I400
sg17
g256
sg18
g13
sg19
S'c:\\windows\\fonts\\helveticaneueltstd-cn.otf'
p3014
sg21
g22
sbag7
(g8
g9
NtRp3015
(dp3016
g12
g13
sg14
S'Khmer UI'
p3017
sg16
I400
sg17
g13
sg18
g13
sg19
S'C:\\Windows\\Fonts\\KhmerUI.ttf'
p3018
sg21
g22
sbag7
(g8
g9
NtRp3019
(dp3020
g12
g49
sg14
S'Bookman Old Style'
p3021
sg16
I700
sg17
g13
sg18
g13
sg19
S'C:\\Windows\\Fonts\\BOOKOSBI.TTF'
p3022
sg21
g22
sbag7
(g8
g9
NtRp3023
(dp3024
g12
g114
sg14
S'Helvetica Neue LT Std'
p3025
sg16
I900
sg17
g256
sg18
g13
sg19
S'C:\\Windows\\Fonts\\HelveticaNeueLTStd-XBlkCnO.otf'
p3026
sg21
g22
sbag7
(g8
g9
NtRp3027
(dp3028
g12
g13
sg14
S'Broadway'
p3029
sg16
I400
sg17
g13
sg18
g13
sg19
S'c:\\windows\\fonts\\broadw.ttf'
p3030
sg21
g22
sbag7
(g8
g9
NtRp3031
(dp3032
g12
g13
sg14
S'Berlin Sans FB'
p3033
sg16
I700
sg17
g13
sg18
g13
sg19
S'c:\\windows\\fonts\\brlnsb.ttf'
p3034
sg21
g22
sbag7
(g8
g9
NtRp3035
(dp3036
g12
g13
sg14
S'Bell MT'
p3037
sg16
I700
sg17
g13
sg18
g13
sg19
S'c:\\windows\\fonts\\bellb.ttf'
p3038
sg21
g22
sbag7
(g8
g9
NtRp3039
(dp3040
g12
g13
sg14
S'Lucida Sans Typewriter'
p3041
sg16
I400
sg17
g13
sg18
g13
sg19
S'c:\\windows\\fonts\\ltype.ttf'
p3042
sg21
g22
sbag7
(g8
g9
NtRp3043
(dp3044
g12
g49
sg14
S'Lucida Calligraphy'
p3045
sg16
I400
sg17
g13
sg18
g13
sg19
S'C:\\Windows\\Fonts\\LCALLIG.TTF'
p3046
sg21
g22
sbag7
(g8
g9
NtRp3047
(dp3048
g12
g49
sg14
S'Bodoni MT'
p3049
sg16
I400
sg17
g256
sg18
g13
sg19
S'C:\\Windows\\Fonts\\BOD_CI.TTF'
p3050
sg21
g22
sbag7
(g8
g9
NtRp3051
(dp3052
g12
g13
sg14
S'Helvetica Neue LT Std'
p3053
sg16
I200
sg17
g13
sg18
g13
sg19
S'C:\\Windows\\Fonts\\HelveticaNeueLTStd-UltLt.otf'
p3054
sg21
g22
sbag7
(g8
g9
NtRp3055
(dp3056
g12
g13
sg14
S'Bodoni MT'
p3057
sg16
I400
sg17
g13
sg18
g13
sg19
S'C:\\Windows\\Fonts\\BOD_PSTC.TTF'
p3058
sg21
g22
sbag7
(g8
g9
NtRp3059
(dp3060
g12
g13
sg14
S'Poor Richard'
p3061
sg16
I400
sg17
g13
sg18
g13
sg19
S'c:\\windows\\fonts\\poorich.ttf'
p3062
sg21
g22
sbag7
(g8
g9
NtRp3063
(dp3064
g12
g13
sg14
S'Californian FB'
p3065
sg16
I400
sg17
g13
sg18
g13
sg19
S'c:\\windows\\fonts\\califr.ttf'
p3066
sg21
g22
sbag7
(g8
g9
NtRp3067
(dp3068
g12
g49
sg14
S'Bodoni MT'
p3069
sg16
I700
sg17
g256
sg18
g13
sg19
S'c:\\windows\\fonts\\bod_cbi.ttf'
p3070
sg21
g22
sbag7
(g8
g9
NtRp3071
(dp3072
g12
g13
sg14
S'Candara'
p3073
sg16
I700
sg17
g13
sg18
g13
sg19
S'C:\\Windows\\Fonts\\Candarab.ttf'
p3074
sg21
g22
sbag7
(g8
g9
NtRp3075
(dp3076
g12
g13
sg14
S'Franklin Gothic Demi'
p3077
sg16
I600
sg17
g13
sg18
g13
sg19
S'C:\\Windows\\Fonts\\FRADM.TTF'
p3078
sg21
g22
sbag7
(g8
g9
NtRp3079
(dp3080
g12
g13
sg14
S'Ravie'
p3081
sg16
I400
sg17
g13
sg18
g13
sg19
S'C:\\Windows\\Fonts\\RAVIE.TTF'
p3082
sg21
g22
sbasS'defaultFamily'
p3083
(dp3084
S'afm'
p3085
S'Helvetica'
p3086
sS'ttf'
p3087
S'Bitstream Vera Sans'
p3088
ssS'ttffiles'
p3089
(lp3090
S'H:\\pyenvs\\mdf\\lib\\site-packages\\matplotlib-1.0.1.mss.1-py2.6-win-amd64.egg\\matplotlib\\mpl-data\\fonts\\ttf\\STIXSizTwoSymReg.ttf'
p3091
aS'H:\\pyenvs\\mdf\\lib\\site-packages\\matplotlib-1.0.1.mss.1-py2.6-win-amd64.egg\\matplotlib\\mpl-data\\fonts\\ttf\\cmb10.ttf'
p3092
aS'H:\\pyenvs\\mdf\\lib\\site-packages\\matplotlib-1.0.1.mss.1-py2.6-win-amd64.egg\\matplotlib\\mpl-data\\fonts\\ttf\\STIXSizTwoSymBol.ttf'
p3093
aS'H:\\pyenvs\\mdf\\lib\\site-packages\\matplotlib-1.0.1.mss.1-py2.6-win-amd64.egg\\matplotlib\\mpl-data\\fonts\\ttf\\STIXNonUni.ttf'
p3094
aS'H:\\pyenvs\\mdf\\lib\\site-packages\\matplotlib-1.0.1.mss.1-py2.6-win-amd64.egg\\matplotlib\\mpl-data\\fonts\\ttf\\Vera.ttf'
p3095
aS'H:\\pyenvs\\mdf\\lib\\site-packages\\matplotlib-1.0.1.mss.1-py2.6-win-amd64.egg\\matplotlib\\mpl-data\\fonts\\ttf\\cmss10.ttf'
p3096
aS'H:\\pyenvs\\mdf\\lib\\site-packages\\matplotlib-1.0.1.mss.1-py2.6-win-amd64.egg\\matplotlib\\mpl-data\\fonts\\ttf\\STIXNonUniBol.ttf'
p3097
aS'H:\\pyenvs\\mdf\\lib\\site-packages\\matplotlib-1.0.1.mss.1-py2.6-win-amd64.egg\\matplotlib\\mpl-data\\fonts\\ttf\\STIXGeneralBolIta.ttf'
p3098
aS'H:\\pyenvs\\mdf\\lib\\site-packages\\matplotlib-1.0.1.mss.1-py2.6-win-amd64.egg\\matplotlib\\mpl-data\\fonts\\ttf\\STIXSizThreeSymReg.ttf'
p3099
aS'H:\\pyenvs\\mdf\\lib\\site-packages\\matplotlib-1.0.1.mss.1-py2.6-win-amd64.egg\\matplotlib\\mpl-data\\fonts\\ttf\\STIXSizThreeSymBol.ttf'
p3100
aS'H:\\pyenvs\\mdf\\lib\\site-packages\\matplotlib-1.0.1.mss.1-py2.6-win-amd64.egg\\matplotlib\\mpl-data\\fonts\\ttf\\cmsy10.ttf'
p3101
aS'H:\\pyenvs\\mdf\\lib\\site-packages\\matplotlib-1.0.1.mss.1-py2.6-win-amd64.egg\\matplotlib\\mpl-data\\fonts\\ttf\\VeraSe.ttf'
p3102
aS'H:\\pyenvs\\mdf\\lib\\site-packages\\matplotlib-1.0.1.mss.1-py2.6-win-amd64.egg\\matplotlib\\mpl-data\\fonts\\ttf\\STIXSizFourSymReg.ttf'
p3103
aS'H:\\pyenvs\\mdf\\lib\\site-packages\\matplotlib-1.0.1.mss.1-py2.6-win-amd64.egg\\matplotlib\\mpl-data\\fonts\\ttf\\STIXSizOneSymReg.ttf'
p3104
aS'H:\\pyenvs\\mdf\\lib\\site-packages\\matplotlib-1.0.1.mss.1-py2.6-win-amd64.egg\\matplotlib\\mpl-data\\fonts\\ttf\\STIXGeneralBol.ttf'
p3105
aS'H:\\pyenvs\\mdf\\lib\\site-packages\\matplotlib-1.0.1.mss.1-py2.6-win-amd64.egg\\matplotlib\\mpl-data\\fonts\\ttf\\VeraSeBd.ttf'
p3106
aS'H:\\pyenvs\\mdf\\lib\\site-packages\\matplotlib-1.0.1.mss.1-py2.6-win-amd64.egg\\matplotlib\\mpl-data\\fonts\\ttf\\cmtt10.ttf'
p3107
aS'H:\\pyenvs\\mdf\\lib\\site-packages\\matplotlib-1.0.1.mss.1-py2.6-win-amd64.egg\\matplotlib\\mpl-data\\fonts\\ttf\\STIXSizFiveSymReg.ttf'
p3108
aS'H:\\pyenvs\\mdf\\lib\\site-packages\\matplotlib-1.0.1.mss.1-py2.6-win-amd64.egg\\matplotlib\\mpl-data\\fonts\\ttf\\STIXGeneralItalic.ttf'
p3109
aS'H:\\pyenvs\\mdf\\lib\\site-packages\\matplotlib-1.0.1.mss.1-py2.6-win-amd64.egg\\matplotlib\\mpl-data\\fonts\\ttf\\cmmi10.ttf'
p3110
aS'H:\\pyenvs\\mdf\\lib\\site-packages\\matplotlib-1.0.1.mss.1-py2.6-win-amd64.egg\\matplotlib\\mpl-data\\fonts\\ttf\\STIXNonUniBolIta.ttf'
p3111
aS'H:\\pyenvs\\mdf\\lib\\site-packages\\matplotlib-1.0.1.mss.1-py2.6-win-amd64.egg\\matplotlib\\mpl-data\\fonts\\ttf\\VeraMoBd.ttf'
p3112
aS'H:\\pyenvs\\mdf\\lib\\site-packages\\matplotlib-1.0.1.mss.1-py2.6-win-amd64.egg\\matplotlib\\mpl-data\\fonts\\ttf\\VeraBd.ttf'
p3113
aS'H:\\pyenvs\\mdf\\lib\\site-packages\\matplotlib-1.0.1.mss.1-py2.6-win-amd64.egg\\matplotlib\\mpl-data\\fonts\\ttf\\VeraMoIt.ttf'
p3114
aS'H:\\pyenvs\\mdf\\lib\\site-packages\\matplotlib-1.0.1.mss.1-py2.6-win-amd64.egg\\matplotlib\\mpl-data\\fonts\\ttf\\cmr10.ttf'
p3115
aS'H:\\pyenvs\\mdf\\lib\\site-packages\\matplotlib-1.0.1.mss.1-py2.6-win-amd64.egg\\matplotlib\\mpl-data\\fonts\\ttf\\VeraIt.ttf'
p3116
aS'H:\\pyenvs\\mdf\\lib\\site-packages\\matplotlib-1.0.1.mss.1-py2.6-win-amd64.egg\\matplotlib\\mpl-data\\fonts\\ttf\\cmex10.ttf'
p3117
aS'H:\\pyenvs\\mdf\\lib\\site-packages\\matplotlib-1.0.1.mss.1-py2.6-win-amd64.egg\\matplotlib\\mpl-data\\fonts\\ttf\\STIXGeneral.ttf'
p3118
aS'H:\\pyenvs\\mdf\\lib\\site-packages\\matplotlib-1.0.1.mss.1-py2.6-win-amd64.egg\\matplotlib\\mpl-data\\fonts\\ttf\\STIXSizFourSymBol.ttf'
p3119
aS'H:\\pyenvs\\mdf\\lib\\site-packages\\matplotlib-1.0.1.mss.1-py2.6-win-amd64.egg\\matplotlib\\mpl-data\\fonts\\ttf\\VeraMono.ttf'
p3120
aS'H:\\pyenvs\\mdf\\lib\\site-packages\\matplotlib-1.0.1.mss.1-py2.6-win-amd64.egg\\matplotlib\\mpl-data\\fonts\\ttf\\STIXSizOneSymBol.ttf'
p3121
aS'H:\\pyenvs\\mdf\\lib\\site-packages\\matplotlib-1.0.1.mss.1-py2.6-win-amd64.egg\\matplotlib\\mpl-data\\fonts\\ttf\\VeraMoBI.ttf'
p3122
aS'H:\\pyenvs\\mdf\\lib\\site-packages\\matplotlib-1.0.1.mss.1-py2.6-win-amd64.egg\\matplotlib\\mpl-data\\fonts\\ttf\\VeraBI.ttf'
p3123
aS'H:\\pyenvs\\mdf\\lib\\site-packages\\matplotlib-1.0.1.mss.1-py2.6-win-amd64.egg\\matplotlib\\mpl-data\\fonts\\ttf\\STIXNonUniIta.ttf'
p3124
aVc:\u005cwindows\u005cfonts\u005cop______.ttf
p3125
aVC:\u005cWindows\u005cFonts\u005ccour.ttf
p3126
aVc:\u005cwindows\u005cfonts\u005cftltlt.ttf
p3127
aVc:\u005cwindows\u005cfonts\u005cbrowai.ttf
p3128
aVC:\u005cWindows\u005cFonts\u005cSTENCIL.TTF
p3129
aVc:\u005cwindows\u005cfonts\u005ccambriab.ttf
p3130
aVC:\u005cWindows\u005cFonts\u005cverdanaz.ttf
p3131
aVC:\u005cWindows\u005cFonts\u005cpalabi.ttf
p3132
aVc:\u005cwindows\u005cfonts\u005cupcji.ttf
p3133
aVC:\u005cWindows\u005cFonts\u005ctaileb.ttf
p3134
aVc:\u005cwindows\u005cfonts\u005chelveticaneueltstd-exo.otf
p3135
aVc:\u005cwindows\u005cfonts\u005ctrebucbd.ttf
p3136
aVC:\u005cWindows\u005cFonts\u005ctahomabd.ttf
p3137
aVc:\u005cwindows\u005cfonts\u005cbelli.ttf
p3138
aVc:\u005cwindows\u005cfonts\u005cbod_blai.ttf
p3139
aVC:\u005cWindows\u005cFonts\u005cCOPRGTB.TTF
p3140
aVC:\u005cWindows\u005cFonts\u005cELEPHNTI.TTF
p3141
aVc:\u005cwindows\u005cfonts\u005cbrowau.ttf
p3142
aVc:\u005cwindows\u005cfonts\u005csimkai.ttf
p3143
aVc:\u005cwindows\u005cfonts\u005cupcel.ttf
p3144
aVc:\u005cwindows\u005cfonts\u005ctaileb.ttf
p3145
aVC:\u005cWindows\u005cFonts\u005cCENSCBK.TTF
p3146
aVc:\u005cwindows\u005cfonts\u005cfradm.ttf
p3147
aVc:\u005cwindows\u005cfonts\u005ctrebucbi.ttf
p3148
aVc:\u005cwindows\u005cfonts\u005chelveticaneueltstd-hvex.otf
p3149
aVC:\u005cWindows\u005cFonts\u005cHelveticaNeueLTStd-Cn.otf
p3150
aVc:\u005cwindows\u005cfonts\u005chelveticaneueltstd-ltcno.otf
p3151
aVc:\u005cwindows\u005cfonts\u005cbod_cr.ttf
p3152
aVC:\u005cWindows\u005cFonts\u005cHelveticaNeueLTStd-Hv.otf
p3153
aVc:\u005cwindows\u005cfonts\u005cbod_bi.ttf
p3154
aVc:\u005cwindows\u005cfonts\u005cgili____.ttf
p3155
aVC:\u005cWindows\u005cFonts\u005cKUNSTLER.TTF
p3156
aVc:\u005cwindows\u005cfonts\u005cbrowauz.ttf
p3157
aVC:\u005cWindows\u005cFonts\u005cmalgunbd.ttf
p3158
aVc:\u005cwindows\u005cfonts\u005cimprisha.ttf
p3159
aVC:\u005cWindows\u005cFonts\u005cdokchamp.ttf
p3160
aVC:\u005cWindows\u005cFonts\u005cCURLZ___.TTF
p3161
aVc:\u005cwindows\u005cfonts\u005cariali.ttf
p3162
aVc:\u005cwindows\u005cfonts\u005ctcm_____.ttf
p3163
aVc:\u005cwindows\u005cfonts\u005ckhmeruib.ttf
p3164
aVc:\u005cwindows\u005cfonts\u005ctccb____.ttf
p3165
aVc:\u005cwindows\u005cfonts\u005csimpo.ttf
p3166
aVc:\u005cwindows\u005cfonts\u005carabtype.ttf
p3167
aVC:\u005cWindows\u005cFonts\u005ckartikab.ttf
p3168
aVc:\u005cwindows\u005cfonts\u005ckhmerui.ttf
p3169
aVc:\u005cwindows\u005cfonts\u005cseguisb.ttf
p3170
aVC:\u005cWindows\u005cFonts\u005ckalinga.ttf
p3171
aVC:\u005cWindows\u005cFonts\u005ckokilab.ttf
p3172
aVC:\u005cWindows\u005cFonts\u005cFRAHV.TTF
p3173
aVC:\u005cWindows\u005cFonts\u005ccordiab.ttf
p3174
aVC:\u005cWindows\u005cFonts\u005cgautamib.ttf
p3175
aVC:\u005cWindows\u005cFonts\u005ceuphemia.ttf
p3176
aVC:\u005cWindows\u005cFonts\u005cgeorgiai.ttf
p3177
aVC:\u005cWindows\u005cFonts\u005cleelawdb.ttf
p3178
aVc:\u005cwindows\u005cfonts\u005cpristina.ttf
p3179
aVC:\u005cWindows\u005cFonts\u005cONYX.TTF
p3180
aVC:\u005cWindows\u005cFonts\u005cBASKVILL.TTF
p3181
aVc:\u005cwindows\u005cfonts\u005chelveticaneueltstd-thexo.otf
p3182
aVC:\u005cWindows\u005cFonts\u005chimalaya.ttf
p3183
aVc:\u005cwindows\u005cfonts\u005ctahomabd.ttf
p3184
aVC:\u005cWindows\u005cFonts\u005cHelveticaNeueLTStd-LtEx.otf
p3185
aVC:\u005cWindows\u005cFonts\u005ccalibrib.ttf
p3186
aVc:\u005cwindows\u005cfonts\u005ckokilab.ttf
p3187
aVc:\u005cwindows\u005cfonts\u005ccalifi.ttf
p3188
aVc:\u005cwindows\u005cfonts\u005cgautamib.ttf
p3189
aVc:\u005cwindows\u005cfonts\u005chelveticaneueltstd-hvcno.otf
p3190
aVc:\u005cwindows\u005cfonts\u005cconsola.ttf
p3191
aVc:\u005cwindows\u005cfonts\u005carialnb.ttf
p3192
aVc:\u005cwindows\u005cfonts\u005chelveticaneueltstd-ultltcn.otf
p3193
aVC:\u005cWindows\u005cFonts\u005cHelveticaNeueLTStd-BdOu.otf
p3194
aVC:\u005cWindows\u005cFonts\u005cangsai.ttf
p3195
aVC:\u005cWindows\u005cFonts\u005cupcfb.ttf
p3196
aVc:\u005cwindows\u005cfonts\u005carialbd.ttf
p3197
aVC:\u005cWindows\u005cFonts\u005cmajalla.ttf
p3198
aVc:\u005cwindows\u005cfonts\u005chelveticaneueltstd-bdex.otf
p3199
aVc:\u005cwindows\u005cfonts\u005cmsyh.ttf
p3200
aVC:\u005cWindows\u005cFonts\u005ctunga.ttf
p3201
aVc:\u005cwindows\u005cfonts\u005chelveticaneueltstd-blkit.otf
p3202
aVc:\u005cwindows\u005cfonts\u005clfaxd.ttf
p3203
aVC:\u005cWindows\u005cFonts\u005ccambriaz.ttf
p3204
aVC:\u005cWindows\u005cFonts\u005cconstanz.ttf
p3205
aVC:\u005cWindows\u005cFonts\u005cupcibi.ttf
p3206
aVc:\u005cwindows\u005cfonts\u005cmaian.ttf
p3207
aVC:\u005cWindows\u005cFonts\u005cnrkis.ttf
p3208
aVc:\u005cwindows\u005cfonts\u005cmsjhbd.ttf
p3209
aVC:\u005cWindows\u005cFonts\u005csegoeuii.ttf
p3210
aVC:\u005cWindows\u005cFonts\u005cmvboli.ttf
p3211
aVc:\u005cwindows\u005cfonts\u005cupckl.ttf
p3212
aVC:\u005cWindows\u005cFonts\u005clvnmbd.ttf
p3213
aVC:\u005cWindows\u005cFonts\u005cLTYPEB.TTF
p3214
aVc:\u005cwindows\u005cfonts\u005chelveticaneueltstd-ltexo.otf
p3215
aVC:\u005cWindows\u005cFonts\u005cCALISTB.TTF
p3216
aVC:\u005cWindows\u005cFonts\u005cHelveticaNeueLTStd-Ex.otf
p3217
aVC:\u005cWindows\u005cFonts\u005cHelveticaNeueLTStd-Bd.otf
p3218
aVc:\u005cwindows\u005cfonts\u005cantquabi.ttf
p3219
aVC:\u005cWindows\u005cFonts\u005cTCMI____.TTF
p3220
aVC:\u005cWindows\u005cFonts\u005cHTOWERTI.TTF
p3221
aVC:\u005cWindows\u005cFonts\u005cLSANS.TTF
p3222
aVC:\u005cWindows\u005cFonts\u005cITCKRIST.TTF
p3223
aVC:\u005cWindows\u005cFonts\u005cmarlett.ttf
p3224
aVc:\u005cwindows\u005cfonts\u005cbrowab.ttf
p3225
aVc:\u005cwindows\u005cfonts\u005ccorbelb.ttf
p3226
aVc:\u005cwindows\u005cfonts\u005cgara.ttf
p3227
aVc:\u005cwindows\u005cfonts\u005csimpbdo.ttf
p3228
aVC:\u005cWindows\u005cFonts\u005cFRABK.TTF
p3229
aVC:\u005cWindows\u005cFonts\u005cHelveticaNeueLTStd-ThExO.otf
p3230
aVC:\u005cWindows\u005cFonts\u005cHelveticaNeueLTStd-BlkEx.otf
p3231
aVc:\u005cwindows\u005cfonts\u005cinfroman.ttf
p3232
aVC:\u005cWindows\u005cFonts\u005cupcll.ttf
p3233
aVc:\u005cwindows\u005cfonts\u005cagencyb.ttf
p3234
aVC:\u005cWindows\u005cFonts\u005cupcfbi.ttf
p3235
aVC:\u005cWindows\u005cFonts\u005cARLRDBD.TTF
p3236
aVc:\u005cwindows\u005cfonts\u005ccoopbl.ttf
p3237
aVc:\u005cwindows\u005cfonts\u005cltypebo.ttf
p3238
aVC:\u005cWindows\u005cFonts\u005cvrindab.ttf
p3239
aVC:\u005cWindows\u005cFonts\u005ckalingab.ttf
p3240
aVC:\u005cWindows\u005cFonts\u005ccalibrii.ttf
p3241
aVC:\u005cWindows\u005cFonts\u005cframdit.ttf
p3242
aVC:\u005cWindows\u005cFonts\u005csegoeui.ttf
p3243
aVc:\u005cwindows\u005cfonts\u005cutsaahi.ttf
p3244
aVc:\u005cwindows\u005cfonts\u005cmod20.ttf
p3245
aVc:\u005cwindows\u005cfonts\u005cupcdi.ttf
p3246
aVC:\u005cWindows\u005cFonts\u005ckaiu.ttf
p3247
aVc:\u005cwindows\u005cfonts\u005cocraext.ttf
p3248
aVc:\u005cwindows\u005cfonts\u005cangsauz.ttf
p3249
aVc:\u005cwindows\u005cfonts\u005cvrindab.ttf
p3250
aVc:\u005cwindows\u005cfonts\u005cshonar.ttf
p3251
aVC:\u005cWindows\u005cFonts\u005ctrebucbi.ttf
p3252
aVc:\u005cwindows\u005cfonts\u005chelveticaneueltstd-blkex.otf
p3253
aVC:\u005cWindows\u005cFonts\u005cGOUDOSB.TTF
p3254
aVc:\u005cwindows\u005cfonts\u005clsansi.ttf
p3255
aVC:\u005cWindows\u005cFonts\u005cupcki.ttf
p3256
aVC:\u005cWindows\u005cFonts\u005cutsaahb.ttf
p3257
aVc:\u005cwindows\u005cfonts\u005cerasmd.ttf
p3258
aVc:\u005cwindows\u005cfonts\u005cverdanai.ttf
p3259
aVC:\u005cWindows\u005cFonts\u005cJOKERMAN.TTF
p3260
aVC:\u005cWindows\u005cFonts\u005cconstanb.ttf
p3261
aVc:\u005cwindows\u005cfonts\u005cfradmit.ttf
p3262
aVC:\u005cWindows\u005cFonts\u005cWINGDNG2.TTF
p3263
aVc:\u005cwindows\u005cfonts\u005cutsaah.ttf
p3264
aVc:\u005cwindows\u005cfonts\u005cmsyhbd.ttf
p3265
aVc:\u005cwindows\u005cfonts\u005csymbol.ttf
p3266
aVC:\u005cWindows\u005cFonts\u005cBOD_BLAI.TTF
p3267
aVC:\u005cWindows\u005cFonts\u005cLBRITEI.TTF
p3268
aVc:\u005cwindows\u005cfonts\u005csylfaen.ttf
p3269
aVC:\u005cWindows\u005cFonts\u005cHelveticaNeueLTStd-ThIt.otf
p3270
aVc:\u005cwindows\u005cfonts\u005croccb___.ttf
p3271
aVC:\u005cWindows\u005cFonts\u005cLSANSD.TTF
p3272
aVC:\u005cWindows\u005cFonts\u005ccalibriz.ttf
p3273
aVc:\u005cwindows\u005cfonts\u005cahronbd.ttf
p3274
aVC:\u005cWindows\u005cFonts\u005cmsjhbd.ttf
p3275
aVc:\u005cwindows\u005cfonts\u005cutsaahb.ttf
p3276
aVc:\u005cwindows\u005cfonts\u005chelveticaneueltstd-ultlt.otf
p3277
aVC:\u005cWindows\u005cFonts\u005cupcjbi.ttf
p3278
aVC:\u005cWindows\u005cFonts\u005cERASMD.TTF
p3279
aVc:\u005cwindows\u005cfonts\u005cschlbki.ttf
p3280
aVc:\u005cwindows\u005cfonts\u005csegoeuiz.ttf
p3281
aVC:\u005cWindows\u005cFonts\u005cBKANT.TTF
p3282
aVC:\u005cWindows\u005cFonts\u005cHelveticaNeueLTStd-UltLtCn.otf
p3283
aVC:\u005cWindows\u005cFonts\u005cangsab.ttf
p3284
aVc:\u005cwindows\u005cfonts\u005cupclb.ttf
p3285
aVC:\u005cWindows\u005cFonts\u005cARIALN.TTF
p3286
aVc:\u005cwindows\u005cfonts\u005csegoeui.ttf
p3287
aVc:\u005cwindows\u005cfonts\u005cangsaui.ttf
p3288
aVC:\u005cWindows\u005cFonts\u005cFRADMCN.TTF
p3289
aVc:\u005cwindows\u005cfonts\u005chelveticaneueltstd-hvexo.otf
p3290
aVC:\u005cWindows\u005cFonts\u005cANTQUABI.TTF
p3291
aVC:\u005cWindows\u005cFonts\u005ctaile.ttf
p3292
aVC:\u005cWindows\u005cFonts\u005cHelveticaNeueLTStd-It.otf
p3293
aVC:\u005cWindows\u005cFonts\u005cSCHLBKBI.TTF
p3294
aVC:\u005cWindows\u005cFonts\u005cBERNHC.TTF
p3295
aVC:\u005cWindows\u005cFonts\u005cupcebi.ttf
p3296
aVc:\u005cwindows\u005cfonts\u005cbookosi.ttf
p3297
aVC:\u005cWindows\u005cFonts\u005cLFAXD.TTF
p3298
aVc:\u005cwindows\u005cfonts\u005cglecb.ttf
p3299
aVc:\u005cwindows\u005cfonts\u005cmtcorsva.ttf
p3300
aVC:\u005cWindows\u005cFonts\u005cCHILLER.TTF
p3301
aVC:\u005cWindows\u005cFonts\u005cGILLUBCD.TTF
p3302
aVc:\u005cwindows\u005cfonts\u005cupcfi.ttf
p3303
aVC:\u005cWindows\u005cFonts\u005cframd.ttf
p3304
aVC:\u005cWindows\u005cFonts\u005cLSANSI.TTF
p3305
aVc:\u005cwindows\u005cfonts\u005ctaile.ttf
p3306
aVC:\u005cWindows\u005cFonts\u005cupckbi.ttf
p3307
aVc:\u005cwindows\u005cfonts\u005ccalibri.ttf
p3308
aVC:\u005cWindows\u005cFonts\u005cFELIXTI.TTF
p3309
aVC:\u005cWindows\u005cFonts\u005cbrowab.ttf
p3310
aVC:\u005cWindows\u005cFonts\u005cVLADIMIR.TTF
p3311
aVC:\u005cWindows\u005cFonts\u005cimpact.ttf
p3312
aVc:\u005cwindows\u005cfonts\u005ccentaur.ttf
p3313
aVc:\u005cwindows\u005cfonts\u005cupcil.ttf
p3314
aVC:\u005cWindows\u005cFonts\u005cBROADW.TTF
p3315
aVC:\u005cWindows\u005cFonts\u005cCOLONNA.TTF
p3316
aVC:\u005cWindows\u005cFonts\u005cGILB____.TTF
p3317
aVC:\u005cWindows\u005cFonts\u005cwingding.ttf
p3318
aVC:\u005cWindows\u005cFonts\u005cCALISTI.TTF
p3319
aVc:\u005cwindows\u005cfonts\u005clatha.ttf
p3320
aVc:\u005cwindows\u005cfonts\u005clucon.ttf
p3321
aVC:\u005cWindows\u005cFonts\u005cmangalb.ttf
p3322
aVC:\u005cWindows\u005cFonts\u005ckartika.ttf
p3323
aVc:\u005cwindows\u005cfonts\u005cvani.ttf
p3324
aVc:\u005cwindows\u005cfonts\u005carlrdbd.ttf
p3325
aVc:\u005cwindows\u005cfonts\u005cupcdl.ttf
p3326
aVC:\u005cWindows\u005cFonts\u005cCALISTBI.TTF
p3327
aVc:\u005cwindows\u005cfonts\u005cbernhc.ttf
p3328
aVC:\u005cWindows\u005cFonts\u005cl_10646.ttf
p3329
aVc:\u005cwindows\u005cfonts\u005cupckbi.ttf
p3330
aVc:\u005cwindows\u005cfonts\u005ccastelar.ttf
p3331
aVc:\u005cwindows\u005cfonts\u005cmagnetob.ttf
p3332
aVC:\u005cWindows\u005cFonts\u005cSCRIPTBL.TTF
p3333
aVC:\u005cWindows\u005cFonts\u005cBRLNSDB.TTF
p3334
aVc:\u005cwindows\u005cfonts\u005chelveticaneueltstd-bdcn.otf
p3335
aVc:\u005cwindows\u005cfonts\u005carialuni.ttf
p3336
aVc:\u005cwindows\u005cfonts\u005caparajbi.ttf
p3337
aVC:\u005cWindows\u005cFonts\u005cHelveticaNeueLTStd-HvCn.otf
p3338
aVc:\u005cwindows\u005cfonts\u005cebrimabd.ttf
p3339
aVC:\u005cWindows\u005cFonts\u005csegoepr.ttf
p3340
aVC:\u005cWindows\u005cFonts\u005cmicross.ttf
p3341
aVc:\u005cwindows\u005cfonts\u005cgillubcd.ttf
p3342
aVC:\u005cWindows\u005cFonts\u005cWINGDNG3.TTF
p3343
aVC:\u005cWindows\u005cFonts\u005ckokilabi.ttf
p3344
aVC:\u005cWindows\u005cFonts\u005cGILBI___.TTF
p3345
aVC:\u005cWindows\u005cFonts\u005cPALSCRI.TTF
p3346
aVC:\u005cWindows\u005cFonts\u005csegoeprb.ttf
p3347
aVC:\u005cWindows\u005cFonts\u005cHelveticaNeueLTStd-UltLtIt.otf
p3348
aVC:\u005cWindows\u005cFonts\u005cupcfl.ttf
p3349
aVc:\u005cwindows\u005cfonts\u005cperi____.ttf
p3350
aVc:\u005cwindows\u005cfonts\u005cmriamc.ttf
p3351
aVc:\u005cwindows\u005cfonts\u005cupcii.ttf
p3352
aVc:\u005cwindows\u005cfonts\u005ccoprgtl.ttf
p3353
aVc:\u005cwindows\u005cfonts\u005ctcmi____.ttf
p3354
aVC:\u005cWindows\u005cFonts\u005cverdanai.ttf
p3355
aVC:\u005cWindows\u005cFonts\u005ccordiaz.ttf
p3356
aVc:\u005cwindows\u005cfonts\u005csegoepr.ttf
p3357
aVc:\u005cwindows\u005cfonts\u005cmicross.ttf
p3358
aVc:\u005cwindows\u005cfonts\u005ctimes.ttf
p3359
aVc:\u005cwindows\u005cfonts\u005cwingdng2.ttf
p3360
aVc:\u005cwindows\u005cfonts\u005cconsolab.ttf
p3361
aVC:\u005cWindows\u005cFonts\u005cutsaah.ttf
p3362
aVc:\u005cwindows\u005cfonts\u005ckalingab.ttf
p3363
aVC:\u005cWindows\u005cFonts\u005cupcil.ttf
p3364
aVc:\u005cwindows\u005cfonts\u005cvijayab.ttf
p3365
aVc:\u005cwindows\u005cfonts\u005ccouri.ttf
p3366
aVC:\u005cWindows\u005cFonts\u005cshrutib.ttf
p3367
aVc:\u005cwindows\u005cfonts\u005ccordiauz.ttf
p3368
aVc:\u005cwindows\u005cfonts\u005cleelawad.ttf
p3369
aVc:\u005cwindows\u005cfonts\u005carial.ttf
p3370
aVc:\u005cwindows\u005cfonts\u005cbod_i.ttf
p3371
aVC:\u005cWindows\u005cFonts\u005cHelveticaNeueLTStd-BlkIt.otf
p3372
aVc:\u005cwindows\u005cfonts\u005cshonarb.ttf
p3373
aVC:\u005cWindows\u005cFonts\u005cVani.ttf
p3374
aVc:\u005cwindows\u005cfonts\u005cengr.ttf
p3375
aVC:\u005cWindows\u005cFonts\u005cNIAGENG.TTF
p3376
aVC:\u005cWindows\u005cFonts\u005cLFAXDI.TTF
p3377
aVC:\u005cWindows\u005cFonts\u005cGOTHIC.TTF
p3378
aVC:\u005cWindows\u005cFonts\u005cBAUHS93.TTF
p3379
aVc:\u005cwindows\u005cfonts\u005cl_10646.ttf
p3380
aVC:\u005cWindows\u005cFonts\u005cmriamc.ttf
p3381
aVC:\u005cWindows\u005cFonts\u005cHATTEN.TTF
p3382
aVC:\u005cWindows\u005cFonts\u005cseguisb.ttf
p3383
aVc:\u005cwindows\u005cfonts\u005csegoeb.ttf
p3384
aVc:\u005cwindows\u005cfonts\u005cantquai.ttf
p3385
aVc:\u005cwindows\u005cfonts\u005chelveticaneueltstd-bdcno.otf
p3386
aVC:\u005cWindows\u005cFonts\u005cHelveticaNeueLTStd-ThCn.otf
p3387
aVc:\u005cwindows\u005cfonts\u005crefsan.ttf
p3388
aVc:\u005cwindows\u005cfonts\u005cbookosb.ttf
p3389
aVc:\u005cwindows\u005cfonts\u005cbrowaub.ttf
p3390
aVC:\u005cWindows\u005cFonts\u005cmoolbor.ttf
p3391
aVc:\u005cwindows\u005cfonts\u005cupcdbi.ttf
p3392
aVc:\u005cwindows\u005cfonts\u005cfelixti.ttf
p3393
aVC:\u005cWindows\u005cFonts\u005ckokilai.ttf
p3394
aVC:\u005cWindows\u005cFonts\u005csegoesc.ttf
p3395
aVc:\u005cwindows\u005cfonts\u005cpalai.ttf
p3396
aVc:\u005cwindows\u005cfonts\u005cfrahvit.ttf
p3397
aVC:\u005cWindows\u005cFonts\u005cmalgun.ttf
p3398
aVC:\u005cWindows\u005cFonts\u005cBRLNSR.TTF
p3399
aVc:\u005cwindows\u005cfonts\u005ccalibrib.ttf
p3400
aVc:\u005cwindows\u005cfonts\u005cupcjb.ttf
p3401
aVc:\u005cwindows\u005cfonts\u005cdavidbd.ttf
p3402
aVC:\u005cWindows\u005cFonts\u005cHelveticaNeueLTStd-BdIt.otf
p3403
aVC:\u005cWindows\u005cFonts\u005cconstani.ttf
p3404
aVC:\u005cWindows\u005cFonts\u005cPERI____.TTF
p3405
aVc:\u005cwindows\u005cfonts\u005cbod_b.ttf
p3406
aVc:\u005cwindows\u005cfonts\u005ckokilai.ttf
p3407
aVc:\u005cwindows\u005cfonts\u005cschlbkb.ttf
p3408
aVc:\u005cwindows\u005cfonts\u005copb_____.ttf
p3409
aVc:\u005cwindows\u005cfonts\u005cchiller.ttf
p3410
aVC:\u005cWindows\u005cFonts\u005cANTQUAB.TTF
p3411
aVc:\u005cwindows\u005cfonts\u005cconstan.ttf
p3412
aVC:\u005cWindows\u005cFonts\u005cARIALNI.TTF
p3413
aVc:\u005cwindows\u005cfonts\u005csimpfxo.ttf
p3414
aVC:\u005cWindows\u005cFonts\u005cHelveticaNeueLTStd-BdExO.otf
p3415
aVc:\u005cwindows\u005cfonts\u005cmangal.ttf
p3416
aVc:\u005cwindows\u005cfonts\u005ctrebuc.ttf
p3417
aVc:\u005cwindows\u005cfonts\u005csimhei.ttf
p3418
aVC:\u005cWindows\u005cFonts\u005cMATURASC.TTF
p3419
aVc:\u005cwindows\u005cfonts\u005cgil_____.ttf
p3420
aVc:\u005cwindows\u005cfonts\u005claoui.ttf
p3421
aVC:\u005cWindows\u005cFonts\u005cGLSNECB.TTF
p3422
aVc:\u005cwindows\u005cfonts\u005chelveticaneueltstd-ltit.otf
p3423
aVc:\u005cwindows\u005cfonts\u005ccambriai.ttf
p3424
aVC:\u005cWindows\u005cFonts\u005cHelveticaNeueLTStd-LtCnO.otf
p3425
aVC:\u005cWindows\u005cFonts\u005cBRUSHSCI.TTF
p3426
aVc:\u005cwindows\u005cfonts\u005ccour.ttf
p3427
aVC:\u005cWindows\u005cFonts\u005clatha.ttf
p3428
aVC:\u005cWindows\u005cFonts\u005cbrowaui.ttf
p3429
aVc:\u005cwindows\u005cfonts\u005cdaunpenh.ttf
p3430
aVc:\u005cwindows\u005cfonts\u005coptimaltstd.otf
p3431
aVC:\u005cWindows\u005cFonts\u005cCALIST.TTF
p3432
aVc:\u005cwindows\u005cfonts\u005ctradbdo.ttf
p3433
aVC:\u005cWindows\u005cFonts\u005cariblk.ttf
p3434
aVc:\u005cwindows\u005cfonts\u005ccenscbk.ttf
p3435
aVC:\u005cWindows\u005cFonts\u005ccorbel.ttf
p3436
aVC:\u005cWindows\u005cFonts\u005cHelveticaNeueLTStd-Blk.otf
p3437
aVC:\u005cWindows\u005cFonts\u005cGLECB.TTF
p3438
aVC:\u005cWindows\u005cFonts\u005cgautami.ttf
p3439
aVC:\u005cWindows\u005cFonts\u005cNIAGSOL.TTF
p3440
aVC:\u005cWindows\u005cFonts\u005cOptimaLTStd-Bold.otf
p3441
aVC:\u005cWindows\u005cFonts\u005cmsyi.ttf
p3442
aVc:\u005cwindows\u005cfonts\u005chelveticaneueltstd-blk.otf
p3443
aVC:\u005cWindows\u005cFonts\u005clvnm.ttf
p3444
aVC:\u005cWindows\u005cFonts\u005cBOOKOSB.TTF
p3445
aVc:\u005cwindows\u005cfonts\u005cupcdb.ttf
p3446
aVC:\u005cWindows\u005cFonts\u005cLTYPEO.TTF
p3447
aVc:\u005cwindows\u005cfonts\u005ctcbi____.ttf
p3448
aVC:\u005cWindows\u005cFonts\u005cupclb.ttf
p3449
aVc:\u005cwindows\u005cfonts\u005cverdanab.ttf
p3450
aVC:\u005cWindows\u005cFonts\u005cphagspab.ttf
p3451
aVc:\u005cwindows\u005cfonts\u005ccourbi.ttf
p3452
aVc:\u005cwindows\u005cfonts\u005cphagspa.ttf
p3453
aVc:\u005cwindows\u005cfonts\u005cwingdng3.ttf
p3454
aVC:\u005cWindows\u005cFonts\u005cupcib.ttf
p3455
aVc:\u005cwindows\u005cfonts\u005ccalistb.ttf
p3456
aVC:\u005cWindows\u005cFonts\u005cupcdb.ttf
p3457
aVC:\u005cWindows\u005cFonts\u005cJUICE___.TTF
p3458
aVC:\u005cWindows\u005cFonts\u005cntailub.ttf
p3459
aVC:\u005cWindows\u005cFonts\u005cshruti.ttf
p3460
aVc:\u005cwindows\u005cfonts\u005ccalisti.ttf
p3461
aVC:\u005cWindows\u005cFonts\u005cangsa.ttf
p3462
aVc:\u005cwindows\u005cfonts\u005chelveticaneueltstd-bd.otf
p3463
aVC:\u005cWindows\u005cFonts\u005cBRADHITC.TTF
p3464
aVc:\u005cwindows\u005cfonts\u005chelveticaneueltstd-mdcn.otf
p3465
aVc:\u005cwindows\u005cfonts\u005cvineritc.ttf
p3466
aVc:\u005cwindows\u005cfonts\u005cjokerman.ttf
p3467
aVC:\u005cWindows\u005cFonts\u005cLHANDW.TTF
p3468
aVC:\u005cWindows\u005cFonts\u005csegoeuib.ttf
p3469
aVC:\u005cWindows\u005cFonts\u005cebrima.ttf
p3470
aVC:\u005cWindows\u005cFonts\u005cCandaraz.ttf
p3471
aVc:\u005cwindows\u005cfonts\u005citcblkad.ttf
p3472
aVC:\u005cWindows\u005cFonts\u005cBOD_CBI.TTF
p3473
aVc:\u005cwindows\u005cfonts\u005cbaskvill.ttf
p3474
aVC:\u005cWindows\u005cFonts\u005cLFAX.TTF
p3475
aVC:\u005cWindows\u005cFonts\u005caparajb.ttf
p3476
aVC:\u005cWindows\u005cFonts\u005cHelveticaNeueLTStd-LtCn.otf
p3477
aVc:\u005cwindows\u005cfonts\u005crocki.ttf
p3478
aVC:\u005cWindows\u005cFonts\u005cVINERITC.TTF
p3479
aVC:\u005cWindows\u005cFonts\u005cANTQUAI.TTF
p3480
aVc:\u005cwindows\u005cfonts\u005cbkant.ttf
p3481
aVC:\u005cWindows\u005cFonts\u005cBOD_I.TTF
p3482
aVC:\u005cWindows\u005cFonts\u005cdaunpenh.ttf
p3483
aVC:\u005cWindows\u005cFonts\u005cconsolai.ttf
p3484
aVC:\u005cWindows\u005cFonts\u005cangsau.ttf
p3485
aVc:\u005cwindows\u005cfonts\u005cgarabd.ttf
p3486
aVC:\u005cWindows\u005cFonts\u005cmsuighur.ttf
p3487
aVc:\u005cwindows\u005cfonts\u005ckokilabi.ttf
p3488
aVC:\u005cWindows\u005cFonts\u005ccourbd.ttf
p3489
aVC:\u005cWindows\u005cFonts\u005cHelveticaNeueLTStd-LtExO.otf
p3490
aVC:\u005cWindows\u005cFonts\u005cSNAP____.TTF
p3491
aVc:\u005cwindows\u005cfonts\u005cgisha.ttf
p3492
aVC:\u005cWindows\u005cFonts\u005cbrowauz.ttf
p3493
aVC:\u005cWindows\u005cFonts\u005csegoe.ttf
p3494
aVc:\u005cwindows\u005cfonts\u005ccalist.ttf
p3495
aVc:\u005cwindows\u005cfonts\u005ccurlz___.ttf
p3496
aVc:\u005cwindows\u005cfonts\u005carialbi.ttf
p3497
aVc:\u005cwindows\u005cfonts\u005ctrebucit.ttf
p3498
aVC:\u005cWindows\u005cFonts\u005cBOOKOSI.TTF
p3499
aVc:\u005cwindows\u005cfonts\u005cbritanic.ttf
p3500
aVC:\u005cWindows\u005cFonts\u005cROCKB.TTF
p3501
aVc:\u005cwindows\u005cfonts\u005ccourbd.ttf
p3502
aVc:\u005cwindows\u005cfonts\u005chelveticaneueltstd-thcn.otf
p3503
aVc:\u005cwindows\u005cfonts\u005cpertili.ttf
p3504
aVC:\u005cWindows\u005cFonts\u005cCALIFB.TTF
p3505
aVc:\u005cwindows\u005cfonts\u005chelveticaneueltstd-mdit.otf
p3506
aVc:\u005cwindows\u005cfonts\u005csimsunb.ttf
p3507
aVc:\u005cwindows\u005cfonts\u005cshrutib.ttf
p3508
aVC:\u005cWindows\u005cFonts\u005cTCCEB.TTF
p3509
aVC:\u005cWindows\u005cFonts\u005cOP______.TTF
p3510
aVc:\u005cwindows\u005cfonts\u005cbrowaui.ttf
p3511
aVC:\u005cWindows\u005cFonts\u005cREFSAN.TTF
p3512
aVc:\u005cwindows\u005cfonts\u005csegoe.ttf
p3513
aVC:\u005cWindows\u005cFonts\u005cHelveticaNeueLTStd-ExO.otf
p3514
aVC:\u005cWindows\u005cFonts\u005ctrado.ttf
p3515
aVc:\u005cwindows\u005cfonts\u005cframdit.ttf
p3516
aVc:\u005cwindows\u005cfonts\u005cbauhs93.ttf
p3517
aVC:\u005cWindows\u005cFonts\u005cHelveticaNeueLTStd-UltLtCnO.otf
p3518
aVc:\u005cwindows\u005cfonts\u005clcallig.ttf
p3519
aVC:\u005cWindows\u005cFonts\u005cLTYPEBO.TTF
p3520
aVc:\u005cwindows\u005cfonts\u005chelveticaltstd-blkcond.otf
p3521
aVc:\u005cwindows\u005cfonts\u005chelveticaneueltstd-mdex.otf
p3522
aVc:\u005cwindows\u005cfonts\u005cmriam.ttf
p3523
aVC:\u005cWindows\u005cFonts\u005cupcii.ttf
p3524
aVc:\u005cwindows\u005cfonts\u005ctimesbi.ttf
p3525
aVc:\u005cwindows\u005cfonts\u005cmangalb.ttf
p3526
aVC:\u005cWindows\u005cFonts\u005cHelveticaNeueLTStd-ThCnO.otf
p3527
aVc:\u005cwindows\u005cfonts\u005ccomicbd.ttf
p3528
aVc:\u005cwindows\u005cfonts\u005ccandarab.ttf
p3529
aVC:\u005cWindows\u005cFonts\u005cMOD20.TTF
p3530
aVC:\u005cWindows\u005cFonts\u005cLTYPE.TTF
p3531
aVc:\u005cwindows\u005cfonts\u005cupcjbi.ttf
p3532
aVc:\u005cwindows\u005cfonts\u005cltypeo.ttf
p3533
aVc:\u005cwindows\u005cfonts\u005chelveticaneueltstd-th.otf
p3534
aVC:\u005cWindows\u005cFonts\u005cmsjh.ttf
p3535
aVc:\u005cwindows\u005cfonts\u005chelveticaneueltstd-hvit.otf
p3536
aVC:\u005cWindows\u005cFonts\u005cERASLGHT.TTF
p3537
aVC:\u005cWindows\u005cFonts\u005cHelveticaNeueLTStd-Lt.otf
p3538
aVC:\u005cWindows\u005cFonts\u005cTCM_____.TTF
p3539
aVc:\u005cwindows\u005cfonts\u005cgoudysto.ttf
p3540
aVC:\u005cWindows\u005cFonts\u005carialbi.ttf
p3541
aVc:\u005cwindows\u005cfonts\u005cupcebi.ttf
p3542
aVC:\u005cWindows\u005cFonts\u005cbrowa.ttf
p3543
aVC:\u005cWindows\u005cFonts\u005cdavid.ttf
p3544
aVC:\u005cWindows\u005cFonts\u005cHelveticaNeueLTStd-MdEx.otf
p3545
aVC:\u005cWindows\u005cFonts\u005cGIGI.TTF
p3546
aVc:\u005cwindows\u005cfonts\u005cpalab.ttf
p3547
aVC:\u005cWindows\u005cFonts\u005cROCCB___.TTF
p3548
aVC:\u005cWindows\u005cFonts\u005ccambriai.ttf
p3549
aVC:\u005cWindows\u005cFonts\u005cCALIFR.TTF
p3550
aVC:\u005cWindows\u005cFonts\u005cupcdbi.ttf
p3551
aVc:\u005cwindows\u005cfonts\u005ccandarai.ttf
p3552
aVc:\u005cwindows\u005cfonts\u005csegoesc.ttf
p3553
aVc:\u005cwindows\u005cfonts\u005cfrabk.ttf
p3554
aVc:\u005cwindows\u005cfonts\u005caparaj.ttf
p3555
aVC:\u005cWindows\u005cFonts\u005cHelveticaNeueLTStd-HvEx.otf
p3556
aVc:\u005cwindows\u005cfonts\u005chelveticaneueltstd-xblkcn.otf
p3557
aVc:\u005cwindows\u005cfonts\u005cgoudosb.ttf
p3558
aVC:\u005cWindows\u005cFonts\u005ccordiaub.ttf
p3559
aVc:\u005cwindows\u005cfonts\u005ceraslght.ttf
p3560
aVC:\u005cWindows\u005cFonts\u005cTCBI____.TTF
p3561
aVC:\u005cWindows\u005cFonts\u005cCOOPBL.TTF
p3562
aVc:\u005cwindows\u005cfonts\u005cconstanb.ttf
p3563
aVc:\u005cprogram files (x86)\u005ccommon files\u005ccisco systems\u005cclient services framework\u005cjre\u005clib\u005cfonts\u005clucidabrightregular.ttf
p3564
aVc:\u005cwindows\u005cfonts\u005cverdanaz.ttf
p3565
aVc:\u005cwindows\u005cfonts\u005cpertibd.ttf
p3566
aVc:\u005cwindows\u005cfonts\u005cgautami.ttf
p3567
aVC:\u005cWindows\u005cFonts\u005cBELL.TTF
p3568
aVc:\u005cwindows\u005cfonts\u005celephnti.ttf
p3569
aVC:\u005cWindows\u005cFonts\u005ctimesi.ttf
p3570
aVc:\u005cwindows\u005cfonts\u005cgothicbi.ttf
p3571
aVC:\u005cWindows\u005cFonts\u005cvijayab.ttf
p3572
aVC:\u005cWindows\u005cFonts\u005cGabriola.ttf
p3573
aVc:\u005cwindows\u005cfonts\u005charngton.ttf
p3574
aVc:\u005cwindows\u005cfonts\u005ccalibriz.ttf
p3575
aVC:\u005cWindows\u005cFonts\u005cGILSANUB.TTF
p3576
aVC:\u005cWindows\u005cFonts\u005cTCB_____.TTF
p3577
aVc:\u005cwindows\u005cfonts\u005ciskpota.ttf
p3578
aVC:\u005cWindows\u005cFonts\u005cBOD_CB.TTF
p3579
aVC:\u005cWindows\u005cFonts\u005cENGR.TTF
p3580
aVC:\u005cWindows\u005cFonts\u005cCandarai.ttf
p3581
aVC:\u005cWindows\u005cFonts\u005cangsauz.ttf
p3582
aVc:\u005cwindows\u005cfonts\u005cgarait.ttf
p3583
aVC:\u005cWindows\u005cFonts\u005ctrebucbd.ttf
p3584
aVc:\u005cwindows\u005cfonts\u005cupcib.ttf
p3585
aVC:\u005cWindows\u005cFonts\u005ccouri.ttf
p3586
aVc:\u005cwindows\u005cfonts\u005cgilb____.ttf
p3587
aVC:\u005cWindows\u005cFonts\u005ccordiauz.ttf
p3588
aVc:\u005cwindows\u005cfonts\u005ccordiab.ttf
p3589
aVc:\u005cwindows\u005cfonts\u005ceuphemia.ttf
p3590
aVc:\u005cwindows\u005cfonts\u005ccentury.ttf
p3591
aVc:\u005cwindows\u005cfonts\u005cangsab.ttf
p3592
aVc:\u005cwindows\u005cfonts\u005chelveticaneueltstd-ultltit.otf
p3593
aVc:\u005cwindows\u005cfonts\u005caparaji.ttf
p3594
aVc:\u005cwindows\u005cfonts\u005cfrabkit.ttf
p3595
aVc:\u005cwindows\u005cfonts\u005cconstanz.ttf
p3596
aVC:\u005cWindows\u005cFonts\u005cmonbaiti.ttf
p3597
aVC:\u005cWindows\u005cFonts\u005caparaj.ttf
p3598
aVc:\u005cwindows\u005cfonts\u005cgilbi___.ttf
p3599
aVc:\u005cwindows\u005cfonts\u005coutlook.ttf
p3600
aVC:\u005cWindows\u005cFonts\u005csylfaen.ttf
p3601
aVc:\u005cwindows\u005cfonts\u005clfaxdi.ttf
p3602
aVc:\u005cwindows\u005cfonts\u005ccandara.ttf
p3603
aVC:\u005cWindows\u005cFonts\u005cCOPRGTL.TTF
p3604
aVC:\u005cWindows\u005cFonts\u005cPER_____.TTF
p3605
aVc:\u005cwindows\u005cfonts\u005cvijaya.ttf
p3606
aVc:\u005cwindows\u005cfonts\u005carialn.ttf
p3607
aVc:\u005cwindows\u005cfonts\u005ccolonna.ttf
p3608
aVC:\u005cWindows\u005cFonts\u005ccordiai.ttf
p3609
aVC:\u005cWindows\u005cFonts\u005csegoeuil.ttf
p3610
aVC:\u005cWindows\u005cFonts\u005csimpbdo.ttf
p3611
aVC:\u005cWindows\u005cFonts\u005cHelveticaLTStd-BlkCond.otf
p3612
aVc:\u005cwindows\u005cfonts\u005clfax.ttf
p3613
aVC:\u005cWindows\u005cFonts\u005ctungab.ttf
p3614
aVc:\u005cwindows\u005cfonts\u005chelveticaneueltstd-ltex.otf
p3615
aVC:\u005cWindows\u005cFonts\u005cmriam.ttf
p3616
aVC:\u005cWindows\u005cFonts\u005cHelveticaNeueLTStd-Md.otf
p3617
aVC:\u005cWindows\u005cFonts\u005cGILI____.TTF
p3618
aVC:\u005cWindows\u005cFonts\u005cmajallab.ttf
p3619
aVC:\u005cWindows\u005cFonts\u005ccomicbd.ttf
p3620
aVC:\u005cWindows\u005cFonts\u005cRAGE.TTF
p3621
aVc:\u005cwindows\u005cfonts\u005chatten.ttf
p3622
aVC:\u005cWindows\u005cFonts\u005ciskpota.ttf
p3623
aVC:\u005cWindows\u005cFonts\u005cPERBI___.TTF
p3624
aVc:\u005cwindows\u005cfonts\u005cfrank.ttf
p3625
aVC:\u005cWindows\u005cFonts\u005cShonar.ttf
p3626
aVc:\u005cwindows\u005cfonts\u005cbrlnsr.ttf
p3627
aVC:\u005cWindows\u005cFonts\u005cLATINWD.TTF
p3628
aVC:\u005cWindows\u005cFonts\u005cBSSYM7.TTF
p3629
aVc:\u005cwindows\u005cfonts\u005cmsyi.ttf
p3630
aVc:\u005cwindows\u005cfonts\u005cwingding.ttf
p3631
aVC:\u005cWindows\u005cFonts\u005csimkai.ttf
p3632
aVc:\u005cwindows\u005cfonts\u005cbell.ttf
p3633
aVC:\u005cWindows\u005cFonts\u005ctradbdo.ttf
p3634
aVC:\u005cWindows\u005cFonts\u005csimhei.ttf
p3635
aVC:\u005cWindows\u005cFonts\u005cbrowai.ttf
p3636
aVC:\u005cWindows\u005cFonts\u005ccorbelz.ttf
p3637
aVC:\u005cWindows\u005cFonts\u005cFORTE.TTF
p3638
aVc:\u005cwindows\u005cfonts\u005cnina.ttf
p3639
aVC:\u005cWindows\u005cFonts\u005cBOD_B.TTF
p3640
aVC:\u005cWindows\u005cFonts\u005cupcji.ttf
p3641
aVc:\u005cwindows\u005cfonts\u005csegoescb.ttf
p3642
aVC:\u005cWindows\u005cFonts\u005carialbd.ttf
p3643
aVC:\u005cWindows\u005cFonts\u005cFRAHVIT.TTF
p3644
aVC:\u005cWindows\u005cFonts\u005ccomic.ttf
p3645
aVC:\u005cWindows\u005cFonts\u005cTCCM____.TTF
p3646
aVc:\u005cwindows\u005cfonts\u005cjuice___.ttf
p3647
aVC:\u005cWindows\u005cFonts\u005cHelveticaNeueLTStd-Th.otf
p3648
aVC:\u005cWindows\u005cFonts\u005cFRSCRIPT.TTF
p3649
aVC:\u005cWindows\u005cFonts\u005cSCHLBKB.TTF
p3650
aVc:\u005cwindows\u005cfonts\u005cangsa.ttf
p3651
aVc:\u005cwindows\u005cfonts\u005clsans.ttf
p3652
aVC:\u005cWindows\u005cFonts\u005cMISTRAL.TTF
p3653
aVc:\u005cwindows\u005cfonts\u005cframdcn.ttf
p3654
aVC:\u005cWindows\u005cFonts\u005cupcel.ttf
p3655
aVC:\u005cWindows\u005cFonts\u005cSCHLBKI.TTF
p3656
aVC:\u005cWindows\u005cFonts\u005cGARABD.TTF
p3657
aVC:\u005cWindows\u005cFonts\u005cFRABKIT.TTF
p3658
aVC:\u005cWindows\u005cFonts\u005cupcjl.ttf
p3659
aVC:\u005cWindows\u005cFonts\u005cCASTELAR.TTF
p3660
aVc:\u005cwindows\u005cfonts\u005cantquab.ttf
p3661
aVc:\u005cwindows\u005cfonts\u005cbrushsci.ttf
p3662
aVC:\u005cWindows\u005cFonts\u005cLFAXI.TTF
p3663
aVC:\u005cWindows\u005cFonts\u005csegoeb.ttf
p3664
aVc:\u005cwindows\u005cfonts\u005cfreescpt.ttf
p3665
aVc:\u005cwindows\u005cfonts\u005cbod_ci.ttf
p3666
aVc:\u005cwindows\u005cfonts\u005chelveticaneueltstd-bdexo.otf
p3667
aVc:\u005cwindows\u005cfonts\u005cgilsanub.ttf
p3668
aVC:\u005cWindows\u005cFonts\u005cPAPYRUS.TTF
p3669
aVc:\u005cwindows\u005cfonts\u005cgigi.ttf
p3670
aVc:\u005cwindows\u005cfonts\u005ctempsitc.ttf
p3671
aVC:\u005cWindows\u005cFonts\u005cLBRITED.TTF
p3672
aVC:\u005cWindows\u005cFonts\u005cBRLNSB.TTF
p3673
aVc:\u005cwindows\u005cfonts\u005cupclbi.ttf
p3674
aVc:\u005cwindows\u005cfonts\u005cupcjl.ttf
p3675
aVc:\u005cwindows\u005cfonts\u005clatinwd.ttf
p3676
aVC:\u005cWindows\u005cFonts\u005craavib.ttf
p3677
aVc:\u005cwindows\u005cfonts\u005chtowert.ttf
p3678
aVc:\u005cwindows\u005cfonts\u005cpapyrus.ttf
p3679
aVc:\u005cwindows\u005cfonts\u005clbritedi.ttf
p3680
aVc:\u005cwindows\u005cfonts\u005celephnt.ttf
p3681
aVc:\u005cwindows\u005cfonts\u005caparajb.ttf
p3682
aVC:\u005cWindows\u005cFonts\u005cdavidbd.ttf
p3683
aVc:\u005cwindows\u005cfonts\u005cariblk.ttf
p3684
aVC:\u005cWindows\u005cFonts\u005cntailu.ttf
p3685
aVC:\u005cWindows\u005cFonts\u005cupcli.ttf
p3686
aVC:\u005cWindows\u005cFonts\u005cHelveticaLTStd-BlkCondObl.otf
p3687
aVc:\u005cwindows\u005cfonts\u005cfradmcn.ttf
p3688
aVC:\u005cWindows\u005cFonts\u005cHelveticaNeueLTStd-MdIt.otf
p3689
aVc:\u005cwindows\u005cfonts\u005cconsolaz.ttf
p3690
aVc:\u005cwindows\u005cfonts\u005cbookosbi.ttf
p3691
aVc:\u005cwindows\u005cfonts\u005craavib.ttf
p3692
aVC:\u005cWindows\u005cFonts\u005cHTOWERT.TTF
p3693
aVc:\u005cwindows\u005cfonts\u005cupcei.ttf
p3694
aVc:\u005cwindows\u005cfonts\u005cupckb.ttf
p3695
aVC:\u005cWindows\u005cFonts\u005cVanib.ttf
p3696
aVC:\u005cWindows\u005cFonts\u005cTEMPSITC.TTF
p3697
aVC:\u005cWindows\u005cFonts\u005cHelveticaNeueLTStd-CnO.otf
p3698
aVC:\u005cWindows\u005cFonts\u005ctrebuc.ttf
p3699
aVC:\u005cWindows\u005cFonts\u005ccorbeli.ttf
p3700
aVC:\u005cWindows\u005cFonts\u005cHelveticaNeueLTStd-MdExO.otf
p3701
aVC:\u005cWindows\u005cFonts\u005cgishabd.ttf
p3702
aVC:\u005cWindows\u005cFonts\u005cconsolab.ttf
p3703
aVC:\u005cWindows\u005cFonts\u005cPERB____.TTF
p3704
aVC:\u005cWindows\u005cFonts\u005cestre.ttf
p3705
aVc:\u005cwindows\u005cfonts\u005cnyala.ttf
p3706
aVC:\u005cWindows\u005cFonts\u005cBELLB.TTF
p3707
aVc:\u005cwindows\u005cfonts\u005crock.ttf
p3708
aVc:\u005cwindows\u005cfonts\u005cupcll.ttf
p3709
aVC:\u005cWindows\u005cFonts\u005cAGENCYB.TTF
p3710
aVC:\u005cWindows\u005cFonts\u005cvrinda.ttf
p3711
aVc:\u005cwindows\u005cfonts\u005chelveticaneueltstd-thcno.otf
p3712
aVc:\u005cwindows\u005cfonts\u005ccorbeli.ttf
p3713
aVc:\u005cwindows\u005cfonts\u005ctcb_____.ttf
p3714
aVc:\u005cwindows\u005cfonts\u005chelveticaneueltstd-lt.otf
p3715
aVC:\u005cWindows\u005cFonts\u005cIMPRISHA.TTF
p3716
aVC:\u005cWindows\u005cFonts\u005cFRADMIT.TTF
p3717
aVC:\u005cWindows\u005cFonts\u005cGOTHICB.TTF
p3718
aVc:\u005cwindows\u005cfonts\u005chelveticaneueltstd-bdou.otf
p3719
aVC:\u005cWindows\u005cFonts\u005cgeorgia.ttf
p3720
aVc:\u005cwindows\u005cfonts\u005cniagsol.ttf
p3721
aVc:\u005cwindows\u005cfonts\u005ccalibrii.ttf
p3722
aVc:\u005cwindows\u005cfonts\u005ctimesi.ttf
p3723
aVc:\u005cwindows\u005cfonts\u005cupcfl.ttf
p3724
aVc:\u005cwindows\u005cfonts\u005crockbi.ttf
p3725
aVC:\u005cWindows\u005cFonts\u005cHelveticaNeueLTStd-UltLtEx.otf
p3726
aVC:\u005cWindows\u005cFonts\u005cPERTILI.TTF
p3727
aVC:\u005cWindows\u005cFonts\u005cHelveticaNeueLTStd-MdCnO.otf
p3728
aVC:\u005cWindows\u005cFonts\u005cHelveticaNeueLTStd-MdCn.otf
p3729
aVC:\u005cWindows\u005cFonts\u005cELEPHNT.TTF
p3730
aVC:\u005cWindows\u005cFonts\u005cROCKI.TTF
p3731
aVC:\u005cWindows\u005cFonts\u005ccourbi.ttf
p3732
aVC:\u005cWindows\u005cFonts\u005ccorbelb.ttf
p3733
aVC:\u005cWindows\u005cFonts\u005cOCRAEXT.TTF
p3734
aVc:\u005cwindows\u005cfonts\u005cmsuighur.ttf
p3735
aVc:\u005cwindows\u005cfonts\u005cupcfb.ttf
p3736
aVC:\u005cWindows\u005cFonts\u005cpalai.ttf
p3737
aVC:\u005cWindows\u005cFonts\u005cBELLI.TTF
p3738
aVC:\u005cWindows\u005cFonts\u005cERASBD.TTF
p3739
aVC:\u005cWindows\u005cFonts\u005cangsaub.ttf
p3740
aVC:\u005cWindows\u005cFonts\u005cupckb.ttf
p3741
aVC:\u005cWindows\u005cFonts\u005cGARAIT.TTF
p3742
aVC:\u005cWindows\u005cFonts\u005cLaoUIb.ttf
p3743
aVC:\u005cWindows\u005cFonts\u005cPLAYBILL.TTF
p3744
aVc:\u005cwindows\u005cfonts\u005calger.ttf
p3745
aVc:\u005cwindows\u005cfonts\u005cmaturasc.ttf
p3746
aVC:\u005cWindows\u005cFonts\u005ccordia.ttf
p3747
aVc:\u005cwindows\u005cfonts\u005ccordiaui.ttf
p3748
aVc:\u005cwindows\u005cfonts\u005chelveticaneueltstd-ultltcno.otf
p3749
aVC:\u005cWindows\u005cFonts\u005cGARA.TTF
p3750
aVc:\u005cwindows\u005cfonts\u005chelveticaneueltstd-ex.otf
p3751
aVc:\u005cwindows\u005cfonts\u005chelveticaneueltstd-hv.otf
p3752
aVc:\u005cwindows\u005cfonts\u005cpalscri.ttf
p3753
aVC:\u005cWindows\u005cFonts\u005cnyala.ttf
p3754
aVc:\u005cwindows\u005cfonts\u005cgothic.ttf
p3755
aVC:\u005cWindows\u005cFonts\u005csimsunb.ttf
p3756
aVC:\u005cWindows\u005cFonts\u005cHelveticaNeueLTStd-Roman.otf
p3757
aVC:\u005cWindows\u005cFonts\u005cHelveticaNeueLTStd-BdCn.otf
p3758
aVc:\u005cwindows\u005cfonts\u005cmalgunbd.ttf
p3759
aVc:\u005cwindows\u005cfonts\u005cnrkis.ttf
p3760
aVC:\u005cWindows\u005cFonts\u005cShonarb.ttf
p3761
aVC:\u005cWindows\u005cFonts\u005cwebdings.ttf
p3762
aVc:\u005cwindows\u005cfonts\u005cntailu.ttf
p3763
aVc:\u005cwindows\u005cfonts\u005cper_____.ttf
p3764
aVc:\u005cwindows\u005cfonts\u005ckartikab.ttf
p3765
aVc:\u005cwindows\u005cfonts\u005cdavid.ttf
p3766
aVC:\u005cWindows\u005cFonts\u005cconsola.ttf
p3767
aVc:\u005cwindows\u005cfonts\u005ccalifb.ttf
p3768
aVC:\u005cWindows\u005cFonts\u005cSHOWG.TTF
p3769
aVc:\u005cwindows\u005cfonts\u005clfaxi.ttf
p3770
aVC:\u005cWindows\u005cFonts\u005cbrowau.ttf
p3771
aVc:\u005cwindows\u005cfonts\u005cfrahv.ttf
p3772
aVc:\u005cwindows\u005cfonts\u005chelveticaneueltstd-roman.otf
p3773
aVc:\u005cwindows\u005cfonts\u005cupcfbi.ttf
p3774
aVc:\u005cwindows\u005cfonts\u005cleelawdb.ttf
p3775
aVc:\u005cwindows\u005cfonts\u005cgeorgiaz.ttf
p3776
aVC:\u005cWindows\u005cFonts\u005cLaoUI.ttf
p3777
aVc:\u005cwindows\u005cfonts\u005cwebdings.ttf
p3778
aVC:\u005cWindows\u005cFonts\u005cupclbi.ttf
p3779
aVC:\u005cWindows\u005cFonts\u005candlso.ttf
p3780
aVC:\u005cWindows\u005cFonts\u005csegoeuiz.ttf
p3781
aVC:\u005cWindows\u005cFonts\u005cINFROMAN.TTF
p3782
aVc:\u005cwindows\u005cfonts\u005cvanib.ttf
p3783
aVc:\u005cwindows\u005cfonts\u005cconsolai.ttf
p3784
aVc:\u005cwindows\u005cfonts\u005crefspcl.ttf
p3785
aVC:\u005cWindows\u005cFonts\u005cutsaahbi.ttf
p3786
aVc:\u005cwindows\u005cfonts\u005cgoudosi.ttf
p3787
aVc:\u005cwindows\u005cfonts\u005cmsjh.ttf
p3788
aVc:\u005cwindows\u005cfonts\u005cgeorgia.ttf
p3789
aVc:\u005cwindows\u005cfonts\u005clbrite.ttf
p3790
aVC:\u005cWindows\u005cFonts\u005cCENTAUR.TTF
p3791
aVC:\u005cWindows\u005cFonts\u005ckokila.ttf
p3792
aVC:\u005cWindows\u005cFonts\u005cverdana.ttf
p3793
aVc:\u005cwindows\u005cfonts\u005csegoeuii.ttf
p3794
aVc:\u005cwindows\u005cfonts\u005cfrscript.ttf
p3795
aVC:\u005cWindows\u005cFonts\u005cROCK.TTF
p3796
aVc:\u005cwindows\u005cfonts\u005cupcli.ttf
p3797
aVc:\u005cwindows\u005cfonts\u005cmonbaiti.ttf
p3798
aVC:\u005cWindows\u005cFonts\u005cARIALNBI.TTF
p3799
aVc:\u005cwindows\u005cfonts\u005ckaiu.ttf
p3800
aVc:\u005cwindows\u005cfonts\u005cbod_blar.ttf
p3801
aVc:\u005cwindows\u005cfonts\u005ccoprgtb.ttf
p3802
aVc:\u005cwindows\u005cfonts\u005ccorbel.ttf
p3803
aVC:\u005cWindows\u005cFonts\u005cGOUDOSI.TTF
p3804
aVC:\u005cWindows\u005cFonts\u005cHARNGTON.TTF
p3805
aVc:\u005cwindows\u005cfonts\u005cgilc____.ttf
p3806
aVc:\u005cwindows\u005cfonts\u005ckokila.ttf
p3807
aVc:\u005cwindows\u005cfonts\u005chelveticaneueltstd-ultltexo.otf
p3808
aVC:\u005cWindows\u005cFonts\u005cutsaahi.ttf
p3809
aVC:\u005cWindows\u005cFonts\u005cBOD_BI.TTF
p3810
aVC:\u005cWindows\u005cFonts\u005cPARCHM.TTF
p3811
aVc:\u005cwindows\u005cfonts\u005cmistral.ttf
p3812
aVc:\u005cwindows\u005cfonts\u005cmajallab.ttf
p3813
aVc:\u005cwindows\u005cfonts\u005cbrowaz.ttf
p3814
aVc:\u005cwindows\u005cfonts\u005crocc____.ttf
p3815
aVC:\u005cWindows\u005cFonts\u005csymbol.ttf
p3816
aVC:\u005cWindows\u005cFonts\u005cupcdi.ttf
p3817
aVC:\u005cWindows\u005cFonts\u005cbrowaub.ttf
p3818
aVC:\u005cWindows\u005cFonts\u005caparaji.ttf
p3819
aVc:\u005cwindows\u005cfonts\u005ccordiau.ttf
p3820
aVc:\u005cwindows\u005cfonts\u005cupceb.ttf
p3821
aVC:\u005cWindows\u005cFonts\u005cVIVALDII.TTF
p3822
aVC:\u005cWindows\u005cFonts\u005cOPB_____.TTF
p3823
aVC:\u005cWindows\u005cFonts\u005cBOOKOS.TTF
p3824
aVC:\u005cWindows\u005cFonts\u005cpalab.ttf
p3825
aVC:\u005cWindows\u005cFonts\u005cgisha.ttf
p3826
aVC:\u005cWindows\u005cFonts\u005cmsyh.ttf
p3827
aVC:\u005cWindows\u005cFonts\u005carial.ttf
p3828
aVc:\u005cwindows\u005cfonts\u005ccorbelz.ttf
p3829
aVC:\u005cWindows\u005cFonts\u005cOptimaLTStd.otf
p3830
aVC:\u005cWindows\u005cFonts\u005ctahoma.ttf
p3831
aVC:\u005cWindows\u005cFonts\u005cMAGNETOB.TTF
p3832
aVc:\u005cwindows\u005cfonts\u005ctccm____.ttf
p3833
aVc:\u005cwindows\u005cfonts\u005cglsnecb.ttf
p3834
aVc:\u005cwindows\u005cfonts\u005ccomic.ttf
p3835
aVC:\u005cWindows\u005cFonts\u005cfrank.ttf
p3836
aVc:\u005cwindows\u005cfonts\u005csegoeprb.ttf
p3837
aVc:\u005cwindows\u005cfonts\u005chelveticaneueltstd-xblkcno.otf
p3838
aVC:\u005cWindows\u005cFonts\u005cangsaui.ttf
p3839
aVc:\u005cwindows\u005cfonts\u005cangsaz.ttf
p3840
aVC:\u005cWindows\u005cFonts\u005cFRAMDCN.TTF
p3841
aVc:\u005cwindows\u005cfonts\u005clsansdi.ttf
p3842
aVC:\u005cWindows\u005cFonts\u005cGIL_____.TTF
p3843
aVC:\u005cWindows\u005cFonts\u005cahronbd.ttf
p3844
aVC:\u005cWindows\u005cFonts\u005cverdanab.ttf
p3845
aVC:\u005cWindows\u005cFonts\u005cFTLTLT.TTF
p3846
aVc:\u005cwindows\u005cfonts\u005ctahoma.ttf
p3847
aVc:\u005cwindows\u005cfonts\u005cgothicb.ttf
p3848
aVc:\u005cwindows\u005cfonts\u005ckalinga.ttf
p3849
aVc:\u005cwindows\u005cfonts\u005ccordiaub.ttf
p3850
aVC:\u005cWindows\u005cFonts\u005csimpo.ttf
p3851
aVc:\u005cwindows\u005cfonts\u005cvivaldii.ttf
p3852
aVc:\u005cwindows\u005cfonts\u005candlso.ttf
p3853
aVc:\u005cwindows\u005cfonts\u005cbookos.ttf
p3854
aVc:\u005cwindows\u005cfonts\u005cmoolbor.ttf
p3855
aVc:\u005cwindows\u005cfonts\u005ccordia.ttf
p3856
aVc:\u005cwindows\u005cfonts\u005cframd.ttf
p3857
aVC:\u005cWindows\u005cFonts\u005cCALIFI.TTF
p3858
aVc:\u005cwindows\u005cfonts\u005chelveticaneueltstd-ultltex.otf
p3859
aVc:\u005cwindows\u005cfonts\u005cbrlnsdb.ttf
p3860
aVc:\u005cwindows\u005cfonts\u005cperb____.ttf
p3861
aVc:\u005cwindows\u005cfonts\u005chelveticaneueltstd-mdcno.otf
p3862
aVC:\u005cWindows\u005cFonts\u005cHelveticaNeueLTStd-BdEx.otf
p3863
aVC:\u005cWindows\u005cFonts\u005cupcjb.ttf
p3864
aVc:\u005cwindows\u005cfonts\u005chelveticaneueltstd-mdexo.otf
p3865
aVc:\u005cwindows\u005cfonts\u005crage.ttf
p3866
aVc:\u005cwindows\u005cfonts\u005carialnbi.ttf
p3867
aVc:\u005cwindows\u005cfonts\u005cbod_cb.ttf
p3868
aVc:\u005cwindows\u005cfonts\u005ccordiai.ttf
p3869
aVc:\u005cwindows\u005cfonts\u005cparchm.ttf
p3870
aVc:\u005cwindows\u005cfonts\u005charlowsi.ttf
p3871
aVC:\u005cWindows\u005cFonts\u005cupceb.ttf
p3872
aVC:\u005cWindows\u005cFonts\u005cPOORICH.TTF
p3873
aVc:\u005cwindows\u005cfonts\u005cimpact.ttf
p3874
aVc:\u005cwindows\u005cfonts\u005cmalgun.ttf
p3875
aVC:\u005cWindows\u005cFonts\u005cBOD_CR.TTF
p3876
aVc:\u005cwindows\u005cfonts\u005cshowg.ttf
p3877
aVc:\u005cwindows\u005cfonts\u005carialni.ttf
p3878
aVC:\u005cWindows\u005cFonts\u005cHelveticaNeueLTStd-BdCnO.otf
p3879
aVC:\u005cWindows\u005cFonts\u005cLSANSDI.TTF
p3880
aVc:\u005cwindows\u005cfonts\u005chelveticaneueltstd-hvcn.otf
p3881
aVc:\u005cwindows\u005cfonts\u005cgothici.ttf
p3882
aVC:\u005cWindows\u005cFonts\u005ccambriab.ttf
p3883
aVC:\u005cWindows\u005cFonts\u005cROCKEB.TTF
p3884
aVC:\u005cWindows\u005cFonts\u005cHelveticaNeueLTStd-HvCnO.otf
p3885
aVc:\u005cprogram files (x86)\u005ccommon files\u005ccisco systems\u005cclient services framework\u005cjre\u005clib\u005cfonts\u005clucidasansdemibold.ttf
p3886
aVC:\u005cWindows\u005cFonts\u005cmsyhbd.ttf
p3887
aVc:\u005cwindows\u005cfonts\u005chelveticaneueltstd-blkexo.otf
p3888
aVC:\u005cWindows\u005cFonts\u005cERASDEMI.TTF
p3889
aVc:\u005cwindows\u005cfonts\u005cgeorgiai.ttf
p3890
aVc:\u005cwindows\u005cfonts\u005claouib.ttf
p3891
aVC:\u005cWindows\u005cFonts\u005cLBRITE.TTF
p3892
aVc:\u005cwindows\u005cfonts\u005chimalaya.ttf
p3893
aVc:\u005cwindows\u005cfonts\u005cforte.ttf
p3894
aVc:\u005cwindows\u005cfonts\u005cpala.ttf
p3895
aVC:\u005cWindows\u005cFonts\u005cHelveticaNeueLTStd-HvExO.otf
p3896
aVC:\u005cWindows\u005cFonts\u005cAGENCYR.TTF
p3897
aVc:\u005cwindows\u005cfonts\u005cestre.ttf
p3898
aVc:\u005cwindows\u005cfonts\u005cgoudos.ttf
p3899
aVc:\u005cwindows\u005cfonts\u005ctcceb.ttf
p3900
aVc:\u005cwindows\u005cfonts\u005ckunstler.ttf
p3901
aVC:\u005cWindows\u005cFonts\u005cARIALUNI.TTF
p3902
aVC:\u005cWindows\u005cFonts\u005cALGER.TTF
p3903
aVc:\u005cwindows\u005cfonts\u005crod.ttf
p3904
aVc:\u005cwindows\u005cfonts\u005cstencil.ttf
p3905
aVC:\u005cWindows\u005cFonts\u005cariali.ttf
p3906
aVc:\u005cwindows\u005cfonts\u005chelveticaneueltstd-it.otf
p3907
aVc:\u005cwindows\u005cfonts\u005cseguisym.ttf
p3908
aVC:\u005cWindows\u005cFonts\u005cBOD_BLAR.TTF
p3909
aVc:\u005cwindows\u005cfonts\u005csnap____.ttf
p3910
aVc:\u005cwindows\u005cfonts\u005ccandaraz.ttf
p3911
aVc:\u005cwindows\u005cfonts\u005cagencyr.ttf
p3912
aVc:\u005cwindows\u005cfonts\u005citcedscr.ttf
p3913
aVC:\u005cWindows\u005cFonts\u005cITCEDSCR.TTF
p3914
aVC:\u005cWindows\u005cFonts\u005cebrimabd.ttf
p3915
aVc:\u005cwindows\u005cfonts\u005chelveticaneueltstd-ltcn.otf
p3916
aVc:\u005cprogram files (x86)\u005ccommon files\u005cmicrosoft shared\u005cequation\u005cmtextra.ttf
p3917
aVc:\u005cwindows\u005cfonts\u005chelveticaneueltstd-thit.otf
p3918
aVc:\u005cwindows\u005cfonts\u005ccambriaz.ttf
p3919
aVC:\u005cWindows\u005cFonts\u005cbrowaz.ttf
p3920
aVC:\u005cWindows\u005cFonts\u005cGOUDYSTO.TTF
p3921
aVc:\u005cwindows\u005cfonts\u005cangsau.ttf
p3922
aVC:\u005cWindows\u005cFonts\u005cKhmerUIb.ttf
p3923
aVc:\u005cwindows\u005cfonts\u005coldengl.ttf
p3924
aVc:\u005cwindows\u005cfonts\u005cgeorgiab.ttf
p3925
aVC:\u005cWindows\u005cFonts\u005cHelveticaNeueLTStd-LtIt.otf
p3926
aVC:\u005cWindows\u005cFonts\u005csimfang.ttf
p3927
aVc:\u005cwindows\u005cfonts\u005cangsaub.ttf
p3928
aVc:\u005cwindows\u005cfonts\u005cninab.ttf
p3929
aVC:\u005cWindows\u005cFonts\u005cconstan.ttf
p3930
aVC:\u005cWindows\u005cFonts\u005cmangal.ttf
p3931
aVc:\u005cwindows\u005cfonts\u005chelveticaneueltstd-md.otf
p3932
aVC:\u005cWindows\u005cFonts\u005csimpfxo.ttf
p3933
aVc:\u005cwindows\u005cfonts\u005cniageng.ttf
p3934
aVC:\u005cWindows\u005cFonts\u005cREFSPCL.TTF
p3935
aVc:\u005cwindows\u005cfonts\u005chelveticaneueltstd-bdit.otf
p3936
aVC:\u005cWindows\u005cFonts\u005cROCKBI.TTF
p3937
aVc:\u005cwindows\u005cfonts\u005clsansd.ttf
p3938
aVC:\u005cWindows\u005cFonts\u005cpala.ttf
p3939
aVC:\u005cWindows\u005cFonts\u005cROCC____.TTF
p3940
aVc:\u005cwindows\u005cfonts\u005csegoeuib.ttf
p3941
aVC:\u005cWindows\u005cFonts\u005cMTCORSVA.TTF
p3942
aVc:\u005cwindows\u005cfonts\u005chelveticaltstd-blkcondobl.otf
p3943
aVC:\u005cWindows\u005cFonts\u005cOUTLOOK.TTF
p3944
aVc:\u005cwindows\u005cfonts\u005csegoeuil.ttf
p3945
aVC:\u005cWindows\u005cFonts\u005cupcfi.ttf
p3946
aVc:\u005cwindows\u005cfonts\u005clbritei.ttf
p3947
aVC:\u005cWindows\u005cFonts\u005cHelveticaNeueLTStd-HvIt.otf
p3948
aVC:\u005cWindows\u005cFonts\u005cBOD_R.TTF
p3949
aVc:\u005cwindows\u005cfonts\u005chtowerti.ttf
p3950
aVC:\u005cWindows\u005cFonts\u005crod.ttf
p3951
aVc:\u005cwindows\u005cfonts\u005conyx.ttf
p3952
aVc:\u005cwindows\u005cfonts\u005citckrist.ttf
p3953
aVc:\u005cwindows\u005cfonts\u005clbrited.ttf
p3954
aVC:\u005cWindows\u005cFonts\u005ctrebucit.ttf
p3955
aVc:\u005cwindows\u005cfonts\u005ctungab.ttf
p3956
aVC:\u005cWindows\u005cFonts\u005cHelveticaNeueLTStd-XBlkCn.otf
p3957
aVC:\u005cWindows\u005cFonts\u005cGILC____.TTF
p3958
aVC:\u005cWindows\u005cFonts\u005cGOUDOS.TTF
p3959
aVc:\u005cwindows\u005cfonts\u005cebrima.ttf
p3960
aVc:\u005cwindows\u005cfonts\u005cbradhitc.ttf
p3961
aVC:\u005cWindows\u005cFonts\u005clucon.ttf
p3962
aVc:\u005cwindows\u005cfonts\u005chelveticaneueltstd-thex.otf
p3963
aVC:\u005cWindows\u005cFonts\u005cCENTURY.TTF
p3964
aVC:\u005cWindows\u005cFonts\u005cBRITANIC.TTF
p3965
aVC:\u005cWindows\u005cFonts\u005cHelveticaNeueLTStd-UltLtExO.otf
p3966
aVC:\u005cWindows\u005cFonts\u005cvijaya.ttf
p3967
aVc:\u005cwindows\u005cfonts\u005ctrado.ttf
p3968
aVC:\u005cWindows\u005cFonts\u005cOLDENGL.TTF
p3969
aVc:\u005cwindows\u005cfonts\u005cangsai.ttf
p3970
aVC:\u005cWindows\u005cFonts\u005craavi.ttf
p3971
aVC:\u005cWindows\u005cFonts\u005carabtype.ttf
p3972
aVc:\u005cwindows\u005cfonts\u005cvladimir.ttf
p3973
aVC:\u005cWindows\u005cFonts\u005cARIALNB.TTF
p3974
aVc:\u005cwindows\u005cfonts\u005cmajalla.ttf
p3975
aVc:\u005cwindows\u005cfonts\u005cerasbd.ttf
p3976
aVc:\u005cwindows\u005cfonts\u005craavi.ttf
p3977
aVc:\u005cwindows\u005cfonts\u005cbssym7.ttf
p3978
aVc:\u005cwindows\u005cfonts\u005ctunga.ttf
p3979
aVC:\u005cWindows\u005cFonts\u005ctimesbi.ttf
p3980
aVc:\u005cwindows\u005cfonts\u005cupcibi.ttf
p3981
aVC:\u005cWindows\u005cFonts\u005cnina.ttf
p3982
aVC:\u005cWindows\u005cFonts\u005csegoescb.ttf
p3983
aVC:\u005cWindows\u005cFonts\u005cplantc.ttf
p3984
aVc:\u005cwindows\u005cfonts\u005cvrinda.ttf
p3985
aVc:\u005cwindows\u005cfonts\u005cschlbkbi.ttf
p3986
aVC:\u005cWindows\u005cFonts\u005ciskpotab.ttf
p3987
aVc:\u005cwindows\u005cfonts\u005cverdana.ttf
p3988
aVC:\u005cWindows\u005cFonts\u005ctimesbd.ttf
p3989
aVC:\u005cWindows\u005cFonts\u005cCandara.ttf
p3990
aVc:\u005cwindows\u005cfonts\u005clvnm.ttf
p3991
aVC:\u005cWindows\u005cFonts\u005cgeorgiaz.ttf
p3992
aVC:\u005cWindows\u005cFonts\u005ccalibri.ttf
p3993
aVc:\u005cwindows\u005cfonts\u005clhandw.ttf
p3994
aVC:\u005cWindows\u005cFonts\u005cHelveticaNeueLTStd-BlkExO.otf
p3995
aVC:\u005cWindows\u005cFonts\u005cPRISTINA.TTF
p3996
aVc:\u005cwindows\u005cfonts\u005crockeb.ttf
p3997
aVc:\u005cwindows\u005cfonts\u005ctimesbd.ttf
p3998
aVc:\u005cwindows\u005cfonts\u005cupcki.ttf
p3999
aVc:\u005cwindows\u005cfonts\u005crockb.ttf
p4000
aVc:\u005cwindows\u005cfonts\u005cplaybill.ttf
p4001
aVc:\u005cwindows\u005cfonts\u005cltypeb.ttf
p4002
aVC:\u005cWindows\u005cFonts\u005cupckl.ttf
p4003
aVC:\u005cWindows\u005cFonts\u005cGOTHICBI.TTF
p4004
aVC:\u005cWindows\u005cFonts\u005cangsaz.ttf
p4005
aVc:\u005cwindows\u005cfonts\u005cbod_r.ttf
p4006
aVC:\u005cWindows\u005cFonts\u005cleelawad.ttf
p4007
aVc:\u005cwindows\u005cfonts\u005cplantc.ttf
p4008
aVc:\u005cwindows\u005cfonts\u005cbod_pstc.ttf
p4009
aVC:\u005cWindows\u005cFonts\u005cseguisym.ttf
p4010
aVc:\u005cwindows\u005cfonts\u005cconstani.ttf
p4011
aVc:\u005cwindows\u005cfonts\u005chelveticaneueltstd-cno.otf
p4012
aVC:\u005cWindows\u005cFonts\u005ctimes.ttf
p4013
aVc:\u005cwindows\u005cfonts\u005cshruti.ttf
p4014
aVC:\u005cWindows\u005cFonts\u005cninab.ttf
p4015
aVC:\u005cWindows\u005cFonts\u005cHelveticaNeueLTStd-ThEx.otf
p4016
aVC:\u005cWindows\u005cFonts\u005cFREESCPT.TTF
p4017
aVC:\u005cWindows\u005cFonts\u005clathab.ttf
p4018
aVc:\u005cwindows\u005cfonts\u005cgabriola.ttf
p4019
aVC:\u005cWindows\u005cFonts\u005cupcdl.ttf
p4020
aVC:\u005cWindows\u005cFonts\u005caparajbi.ttf
p4021
aVc:\u005cwindows\u005cfonts\u005cperbi___.ttf
p4022
aVc:\u005cwindows\u005cfonts\u005cpalabi.ttf
p4023
aVC:\u005cWindows\u005cFonts\u005ccordiaui.ttf
p4024
aVC:\u005cWindows\u005cFonts\u005cphagspa.ttf
p4025
aVC:\u005cWindows\u005cFonts\u005cITCBLKAD.TTF
p4026
aVC:\u005cWindows\u005cFonts\u005cPERTIBD.TTF
p4027
aVc:\u005cwindows\u005cfonts\u005cravie.ttf
p4028
aVc:\u005cwindows\u005cfonts\u005cbrowa.ttf
p4029
aVC:\u005cWindows\u005cFonts\u005cconsolaz.ttf
p4030
aVc:\u005cwindows\u005cfonts\u005coptimaltstd-bold.otf
p4031
aVC:\u005cWindows\u005cFonts\u005cupcei.ttf
p4032
aVc:\u005cwindows\u005cfonts\u005cerasdemi.ttf
p4033
aVC:\u005cWindows\u005cFonts\u005cLBRITEDI.TTF
p4034
aVc:\u005cwindows\u005cfonts\u005clathab.ttf
p4035
aVc:\u005cwindows\u005cfonts\u005cutsaahbi.ttf
p4036
aVc:\u005cwindows\u005cfonts\u005cscriptbl.ttf
p4037
aVC:\u005cWindows\u005cFonts\u005cGOTHICI.TTF
p4038
aVC:\u005cWindows\u005cFonts\u005cMAIAN.TTF
p4039
aVc:\u005cwindows\u005cfonts\u005ccalistbi.ttf
p4040
aVc:\u005cwindows\u005cfonts\u005csimfang.ttf
p4041
aVC:\u005cWindows\u005cFonts\u005cTCCB____.TTF
p4042
aVc:\u005cwindows\u005cfonts\u005cmvboli.ttf
p4043
aVC:\u005cWindows\u005cFonts\u005ccordiau.ttf
p4044
aVC:\u005cWindows\u005cFonts\u005cHARLOWSI.TTF
p4045
aVc:\u005cwindows\u005cfonts\u005chelveticaneueltstd-cn.otf
p4046
aVc:\u005cwindows\u005cfonts\u005clvnmbd.ttf
p4047
aVC:\u005cWindows\u005cFonts\u005cKhmerUI.ttf
p4048
aVC:\u005cWindows\u005cFonts\u005cBOOKOSBI.TTF
p4049
aVC:\u005cWindows\u005cFonts\u005cHelveticaNeueLTStd-XBlkCnO.otf
p4050
aVc:\u005cwindows\u005cfonts\u005cbroadw.ttf
p4051
aVc:\u005cwindows\u005cfonts\u005cbrlnsb.ttf
p4052
aVc:\u005cwindows\u005cfonts\u005cbellb.ttf
p4053
aVc:\u005cwindows\u005cfonts\u005cltype.ttf
p4054
aVC:\u005cWindows\u005cFonts\u005cLCALLIG.TTF
p4055
aVC:\u005cWindows\u005cFonts\u005cBOD_CI.TTF
p4056
aVc:\u005cwindows\u005cfonts\u005ckartika.ttf
p4057
aVC:\u005cWindows\u005cFonts\u005cHelveticaNeueLTStd-UltLt.otf
p4058
aVc:\u005cwindows\u005cfonts\u005cdokchamp.ttf
p4059
aVC:\u005cWindows\u005cFonts\u005cBOD_PSTC.TTF
p4060
aVc:\u005cwindows\u005cfonts\u005cphagspab.ttf
p4061
aVC:\u005cWindows\u005cFonts\u005cgeorgiab.ttf
p4062
aVc:\u005cwindows\u005cfonts\u005cpoorich.ttf
p4063
aVc:\u005cwindows\u005cfonts\u005cntailub.ttf
p4064
aVc:\u005cwindows\u005cfonts\u005ccalifr.ttf
p4065
aVc:\u005cwindows\u005cfonts\u005cgishabd.ttf
p4066
aVc:\u005cwindows\u005cfonts\u005cbod_cbi.ttf
p4067
aVC:\u005cWindows\u005cFonts\u005cCandarab.ttf
p4068
aVC:\u005cWindows\u005cFonts\u005cFRADM.TTF
p4069
aVc:\u005cwindows\u005cfonts\u005ciskpotab.ttf
p4070
aVc:\u005cwindows\u005cfonts\u005ccordiaz.ttf
p4071
aVC:\u005cWindows\u005cFonts\u005cRAVIE.TTF
p4072
asS'_FontManager__default_weight'
p4073
g13
sS'_version'
p4074
I7
sS'ttf_lookup_cache'
p4075
(dp4076
sS'default_size'
p4077
NsS'defaultFont'
p4078
(dp4079
g3085
Nsg3087
g3095
ssS'afmfiles'
p4080
(lp4081
S'H:\\pyenvs\\mdf\\lib\\site-packages\\matplotlib-1.0.1.mss.1-py2.6-win-amd64.egg\\matplotlib\\mpl-data\\fonts\\pdfcorefonts\\Courier-Bold.afm'
p4082
aS'H:\\pyenvs\\mdf\\lib\\site-packages\\matplotlib-1.0.1.mss.1-py2.6-win-amd64.egg\\matplotlib\\mpl-data\\fonts\\pdfcorefonts\\Helvetica-Bold.afm'
p4083
aS'H:\\pyenvs\\mdf\\lib\\site-packages\\matplotlib-1.0.1.mss.1-py2.6-win-amd64.egg\\matplotlib\\mpl-data\\fonts\\afm\\phvr8an.afm'
p4084
aS'H:\\pyenvs\\mdf\\lib\\site-packages\\matplotlib-1.0.1.mss.1-py2.6-win-amd64.egg\\matplotlib\\mpl-data\\fonts\\afm\\ptmr8a.afm'
p4085
aS'H:\\pyenvs\\mdf\\lib\\site-packages\\matplotlib-1.0.1.mss.1-py2.6-win-amd64.egg\\matplotlib\\mpl-data\\fonts\\afm\\putr8a.afm'
p4086
aS'H:\\pyenvs\\mdf\\lib\\site-packages\\matplotlib-1.0.1.mss.1-py2.6-win-amd64.egg\\matplotlib\\mpl-data\\fonts\\afm\\pzcmi8a.afm'
p4087
aS'H:\\pyenvs\\mdf\\lib\\site-packages\\matplotlib-1.0.1.mss.1-py2.6-win-amd64.egg\\matplotlib\\mpl-data\\fonts\\afm\\ptmri8a.afm'
p4088
aS'H:\\pyenvs\\mdf\\lib\\site-packages\\matplotlib-1.0.1.mss.1-py2.6-win-amd64.egg\\matplotlib\\mpl-data\\fonts\\afm\\pagk8a.afm'
p4089
aS'H:\\pyenvs\\mdf\\lib\\site-packages\\matplotlib-1.0.1.mss.1-py2.6-win-amd64.egg\\matplotlib\\mpl-data\\fonts\\pdfcorefonts\\Courier-Oblique.afm'
p4090
aS'H:\\pyenvs\\mdf\\lib\\site-packages\\matplotlib-1.0.1.mss.1-py2.6-win-amd64.egg\\matplotlib\\mpl-data\\fonts\\afm\\phvl8a.afm'
p4091
aS'H:\\pyenvs\\mdf\\lib\\site-packages\\matplotlib-1.0.1.mss.1-py2.6-win-amd64.egg\\matplotlib\\mpl-data\\fonts\\afm\\putbi8a.afm'
p4092
aS'H:\\pyenvs\\mdf\\lib\\site-packages\\matplotlib-1.0.1.mss.1-py2.6-win-amd64.egg\\matplotlib\\mpl-data\\fonts\\afm\\pcrb8a.afm'
p4093
aS'H:\\pyenvs\\mdf\\lib\\site-packages\\matplotlib-1.0.1.mss.1-py2.6-win-amd64.egg\\matplotlib\\mpl-data\\fonts\\afm\\phvbo8a.afm'
p4094
aS'H:\\pyenvs\\mdf\\lib\\site-packages\\matplotlib-1.0.1.mss.1-py2.6-win-amd64.egg\\matplotlib\\mpl-data\\fonts\\afm\\cmr10.afm'
p4095
aS'H:\\pyenvs\\mdf\\lib\\site-packages\\matplotlib-1.0.1.mss.1-py2.6-win-amd64.egg\\matplotlib\\mpl-data\\fonts\\afm\\pplri8a.afm'
p4096
aS'H:\\pyenvs\\mdf\\lib\\site-packages\\matplotlib-1.0.1.mss.1-py2.6-win-amd64.egg\\matplotlib\\mpl-data\\fonts\\afm\\pcrbo8a.afm'
p4097
aS'H:\\pyenvs\\mdf\\lib\\site-packages\\matplotlib-1.0.1.mss.1-py2.6-win-amd64.egg\\matplotlib\\mpl-data\\fonts\\pdfcorefonts\\Helvetica-Oblique.afm'
p4098
aS'H:\\pyenvs\\mdf\\lib\\site-packages\\matplotlib-1.0.1.mss.1-py2.6-win-amd64.egg\\matplotlib\\mpl-data\\fonts\\afm\\phvro8an.afm'
p4099
aS'H:\\pyenvs\\mdf\\lib\\site-packages\\matplotlib-1.0.1.mss.1-py2.6-win-amd64.egg\\matplotlib\\mpl-data\\fonts\\afm\\phvro8a.afm'
p4100
aS'H:\\pyenvs\\mdf\\lib\\site-packages\\matplotlib-1.0.1.mss.1-py2.6-win-amd64.egg\\matplotlib\\mpl-data\\fonts\\afm\\putb8a.afm'
p4101
aS'H:\\pyenvs\\mdf\\lib\\site-packages\\matplotlib-1.0.1.mss.1-py2.6-win-amd64.egg\\matplotlib\\mpl-data\\fonts\\afm\\pplbi8a.afm'
p4102
aS'H:\\pyenvs\\mdf\\lib\\site-packages\\matplotlib-1.0.1.mss.1-py2.6-win-amd64.egg\\matplotlib\\mpl-data\\fonts\\afm\\pcrro8a.afm'
p4103
aS'H:\\pyenvs\\mdf\\lib\\site-packages\\matplotlib-1.0.1.mss.1-py2.6-win-amd64.egg\\matplotlib\\mpl-data\\fonts\\afm\\pplr8a.afm'
p4104
aS'H:\\pyenvs\\mdf\\lib\\site-packages\\matplotlib-1.0.1.mss.1-py2.6-win-amd64.egg\\matplotlib\\mpl-data\\fonts\\afm\\pbkli8a.afm'
p4105
aS'H:\\pyenvs\\mdf\\lib\\site-packages\\matplotlib-1.0.1.mss.1-py2.6-win-amd64.egg\\matplotlib\\mpl-data\\fonts\\pdfcorefonts\\Helvetica-BoldOblique.afm'
p4106
aS'H:\\pyenvs\\mdf\\lib\\site-packages\\matplotlib-1.0.1.mss.1-py2.6-win-amd64.egg\\matplotlib\\mpl-data\\fonts\\afm\\phvlo8a.afm'
p4107
aS'H:\\pyenvs\\mdf\\lib\\site-packages\\matplotlib-1.0.1.mss.1-py2.6-win-amd64.egg\\matplotlib\\mpl-data\\fonts\\afm\\pagko8a.afm'
p4108
aS'H:\\pyenvs\\mdf\\lib\\site-packages\\matplotlib-1.0.1.mss.1-py2.6-win-amd64.egg\\matplotlib\\mpl-data\\fonts\\afm\\ptmb8a.afm'
p4109
aS'H:\\pyenvs\\mdf\\lib\\site-packages\\matplotlib-1.0.1.mss.1-py2.6-win-amd64.egg\\matplotlib\\mpl-data\\fonts\\afm\\pagd8a.afm'
p4110
aS'H:\\pyenvs\\mdf\\lib\\site-packages\\matplotlib-1.0.1.mss.1-py2.6-win-amd64.egg\\matplotlib\\mpl-data\\fonts\\afm\\pncb8a.afm'
p4111
aS'H:\\pyenvs\\mdf\\lib\\site-packages\\matplotlib-1.0.1.mss.1-py2.6-win-amd64.egg\\matplotlib\\mpl-data\\fonts\\pdfcorefonts\\Courier.afm'
p4112
aS'H:\\pyenvs\\mdf\\lib\\site-packages\\matplotlib-1.0.1.mss.1-py2.6-win-amd64.egg\\matplotlib\\mpl-data\\fonts\\afm\\pplb8a.afm'
p4113
aS'H:\\pyenvs\\mdf\\lib\\site-packages\\matplotlib-1.0.1.mss.1-py2.6-win-amd64.egg\\matplotlib\\mpl-data\\fonts\\afm\\putri8a.afm'
p4114
aS'H:\\pyenvs\\mdf\\lib\\site-packages\\matplotlib-1.0.1.mss.1-py2.6-win-amd64.egg\\matplotlib\\mpl-data\\fonts\\afm\\pagdo8a.afm'
p4115
aS'H:\\pyenvs\\mdf\\lib\\site-packages\\matplotlib-1.0.1.mss.1-py2.6-win-amd64.egg\\matplotlib\\mpl-data\\fonts\\afm\\pcrr8a.afm'
p4116
aS'H:\\pyenvs\\mdf\\lib\\site-packages\\matplotlib-1.0.1.mss.1-py2.6-win-amd64.egg\\matplotlib\\mpl-data\\fonts\\afm\\psyr.afm'
p4117
aS'H:\\pyenvs\\mdf\\lib\\site-packages\\matplotlib-1.0.1.mss.1-py2.6-win-amd64.egg\\matplotlib\\mpl-data\\fonts\\pdfcorefonts\\Courier-BoldOblique.afm'
p4118
aS'H:\\pyenvs\\mdf\\lib\\site-packages\\matplotlib-1.0.1.mss.1-py2.6-win-amd64.egg\\matplotlib\\mpl-data\\fonts\\afm\\phvbo8an.afm'
p4119
aS'H:\\pyenvs\\mdf\\lib\\site-packages\\matplotlib-1.0.1.mss.1-py2.6-win-amd64.egg\\matplotlib\\mpl-data\\fonts\\pdfcorefonts\\Symbol.afm'
p4120
aS'H:\\pyenvs\\mdf\\lib\\site-packages\\matplotlib-1.0.1.mss.1-py2.6-win-amd64.egg\\matplotlib\\mpl-data\\fonts\\pdfcorefonts\\Helvetica.afm'
p4121
aS'H:\\pyenvs\\mdf\\lib\\site-packages\\matplotlib-1.0.1.mss.1-py2.6-win-amd64.egg\\matplotlib\\mpl-data\\fonts\\afm\\cmsy10.afm'
p4122
aS'H:\\pyenvs\\mdf\\lib\\site-packages\\matplotlib-1.0.1.mss.1-py2.6-win-amd64.egg\\matplotlib\\mpl-data\\fonts\\pdfcorefonts\\Times-Roman.afm'
p4123
aS'H:\\pyenvs\\mdf\\lib\\site-packages\\matplotlib-1.0.1.mss.1-py2.6-win-amd64.egg\\matplotlib\\mpl-data\\fonts\\afm\\phvr8a.afm'
p4124
aS'H:\\pyenvs\\mdf\\lib\\site-packages\\matplotlib-1.0.1.mss.1-py2.6-win-amd64.egg\\matplotlib\\mpl-data\\fonts\\afm\\pbkdi8a.afm'
p4125
aS'H:\\pyenvs\\mdf\\lib\\site-packages\\matplotlib-1.0.1.mss.1-py2.6-win-amd64.egg\\matplotlib\\mpl-data\\fonts\\pdfcorefonts\\Times-BoldItalic.afm'
p4126
aS'H:\\pyenvs\\mdf\\lib\\site-packages\\matplotlib-1.0.1.mss.1-py2.6-win-amd64.egg\\matplotlib\\mpl-data\\fonts\\afm\\phvb8a.afm'
p4127
aS'H:\\pyenvs\\mdf\\lib\\site-packages\\matplotlib-1.0.1.mss.1-py2.6-win-amd64.egg\\matplotlib\\mpl-data\\fonts\\afm\\pncbi8a.afm'
p4128
aS'H:\\pyenvs\\mdf\\lib\\site-packages\\matplotlib-1.0.1.mss.1-py2.6-win-amd64.egg\\matplotlib\\mpl-data\\fonts\\afm\\cmex10.afm'
p4129
aS'H:\\pyenvs\\mdf\\lib\\site-packages\\matplotlib-1.0.1.mss.1-py2.6-win-amd64.egg\\matplotlib\\mpl-data\\fonts\\afm\\pbkl8a.afm'
p4130
aS'H:\\pyenvs\\mdf\\lib\\site-packages\\matplotlib-1.0.1.mss.1-py2.6-win-amd64.egg\\matplotlib\\mpl-data\\fonts\\afm\\cmmi10.afm'
p4131
aS'H:\\pyenvs\\mdf\\lib\\site-packages\\matplotlib-1.0.1.mss.1-py2.6-win-amd64.egg\\matplotlib\\mpl-data\\fonts\\afm\\pncr8a.afm'
p4132
aS'H:\\pyenvs\\mdf\\lib\\site-packages\\matplotlib-1.0.1.mss.1-py2.6-win-amd64.egg\\matplotlib\\mpl-data\\fonts\\afm\\pbkd8a.afm'
p4133
aS'H:\\pyenvs\\mdf\\lib\\site-packages\\matplotlib-1.0.1.mss.1-py2.6-win-amd64.egg\\matplotlib\\mpl-data\\fonts\\afm\\pncri8a.afm'
p4134
aS'H:\\pyenvs\\mdf\\lib\\site-packages\\matplotlib-1.0.1.mss.1-py2.6-win-amd64.egg\\matplotlib\\mpl-data\\fonts\\afm\\cmtt10.afm'
p4135
aS'H:\\pyenvs\\mdf\\lib\\site-packages\\matplotlib-1.0.1.mss.1-py2.6-win-amd64.egg\\matplotlib\\mpl-data\\fonts\\pdfcorefonts\\Times-Bold.afm'
p4136
aS'H:\\pyenvs\\mdf\\lib\\site-packages\\matplotlib-1.0.1.mss.1-py2.6-win-amd64.egg\\matplotlib\\mpl-data\\fonts\\pdfcorefonts\\Times-Italic.afm'
p4137
aS'H:\\pyenvs\\mdf\\lib\\site-packages\\matplotlib-1.0.1.mss.1-py2.6-win-amd64.egg\\matplotlib\\mpl-data\\fonts\\pdfcorefonts\\ZapfDingbats.afm'
p4138
aS'H:\\pyenvs\\mdf\\lib\\site-packages\\matplotlib-1.0.1.mss.1-py2.6-win-amd64.egg\\matplotlib\\mpl-data\\fonts\\afm\\phvb8an.afm'
p4139
aS'H:\\pyenvs\\mdf\\lib\\site-packages\\matplotlib-1.0.1.mss.1-py2.6-win-amd64.egg\\matplotlib\\mpl-data\\fonts\\afm\\pzdr.afm'
p4140
aS'H:\\pyenvs\\mdf\\lib\\site-packages\\matplotlib-1.0.1.mss.1-py2.6-win-amd64.egg\\matplotlib\\mpl-data\\fonts\\afm\\ptmbi8a.afm'
p4141
asS'afmlist'
p4142
(lp4143
g7
(g8
g9
NtRp4144
(dp4145
g12
g13
sg14
S'Courier'
p4146
sg16
I700
sg17
g13
sg18
g13
sg19
g4082
sg21
g22
sbag7
(g8
g9
NtRp4147
(dp4148
g12
g13
sg14
S'Helvetica'
p4149
sg16
I700
sg17
g13
sg18
g13
sg19
g4083
sg21
g22
sbag7
(g8
g9
NtRp4150
(dp4151
g12
g13
sg14
S'Helvetica'
p4152
sg16
I500
sg17
g256
sg18
g13
sg19
g4084
sg21
g22
sbag7
(g8
g9
NtRp4153
(dp4154
g12
g13
sg14
S'Times'
p4155
sg16
I500
sg17
g13
sg18
g13
sg19
g4085
sg21
g22
sbag7
(g8
g9
NtRp4156
(dp4157
g12
g13
sg14
S'Utopia'
p4158
sg16
I400
sg17
g13
sg18
g13
sg19
g4086
sg21
g22
sbag7
(g8
g9
NtRp4159
(dp4160
g12
g49
sg14
S'ITC Zapf Chancery'
p4161
sg16
I500
sg17
g13
sg18
g13
sg19
g4087
sg21
g22
sbag7
(g8
g9
NtRp4162
(dp4163
g12
g49
sg14
S'Times'
p4164
sg16
I500
sg17
g13
sg18
g13
sg19
g4088
sg21
g22
sbag7
(g8
g9
NtRp4165
(dp4166
g12
g13
sg14
S'ITC Avant Garde Gothic'
p4167
sg16
I400
sg17
g13
sg18
g13
sg19
g4089
sg21
g22
sbag7
(g8
g9
NtRp4168
(dp4169
g12
g49
sg14
S'Courier'
p4170
sg16
I500
sg17
g13
sg18
g13
sg19
g4090
sg21
g22
sbag7
(g8
g9
NtRp4171
(dp4172
g12
g13
sg14
S'Helvetica'
p4173
sg16
I200
sg17
g13
sg18
g13
sg19
g4091
sg21
g22
sbag7
(g8
g9
NtRp4174
(dp4175
g12
g49
sg14
S'Utopia'
p4176
sg16
I700
sg17
g13
sg18
g13
sg19
g4092
sg21
g22
sbag7
(g8
g9
NtRp4177
(dp4178
g12
g13
sg14
S'Courier'
p4179
sg16
I700
sg17
g13
sg18
g13
sg19
g4093
sg21
g22
sbag7
(g8
g9
NtRp4180
(dp4181
g12
g49
sg14
S'Helvetica'
p4182
sg16
I700
sg17
g13
sg18
g13
sg19
g4094
sg21
g22
sbag7
(g8
g9
NtRp4183
(dp4184
g12
g13
sg14
S'Computer Modern'
p4185
sg16
I500
sg17
g13
sg18
g13
sg19
g4095
sg21
g22
sbag7
(g8
g9
NtRp4186
(dp4187
g12
g49
sg14
S'Palatino'
p4188
sg16
I500
sg17
g13
sg18
g13
sg19
g4096
sg21
g22
sbag7
(g8
g9
NtRp4189
(dp4190
g12
g49
sg14
S'Courier'
p4191
sg16
I700
sg17
g13
sg18
g13
sg19
g4097
sg21
g22
sbag7
(g8
g9
NtRp4192
(dp4193
g12
g49
sg14
S'Helvetica'
p4194
sg16
I500
sg17
g13
sg18
g13
sg19
g4098
sg21
g22
sbag7
(g8
g9
NtRp4195
(dp4196
g12
g49
sg14
S'Helvetica'
p4197
sg16
I500
sg17
g256
sg18
g13
sg19
g4099
sg21
g22
sbag7
(g8
g9
NtRp4198
(dp4199
g12
g49
sg14
S'Helvetica'
p4200
sg16
I500
sg17
g13
sg18
g13
sg19
g4100
sg21
g22
sbag7
(g8
g9
NtRp4201
(dp4202
g12
g13
sg14
S'Utopia'
p4203
sg16
I700
sg17
g13
sg18
g13
sg19
g4101
sg21
g22
sbag7
(g8
g9
NtRp4204
(dp4205
g12
g49
sg14
S'Palatino'
p4206
sg16
I700
sg17
g13
sg18
g13
sg19
g4102
sg21
g22
sbag7
(g8
g9
NtRp4207
(dp4208
g12
g49
sg14
S'Courier'
p4209
sg16
I500
sg17
g13
sg18
g13
sg19
g4103
sg21
g22
sbag7
(g8
g9
NtRp4210
(dp4211
g12
g13
sg14
S'Palatino'
p4212
sg16
I500
sg17
g13
sg18
g13
sg19
g4104
sg21
g22
sbag7
(g8
g9
NtRp4213
(dp4214
g12
g49
sg14
S'ITC Bookman'
p4215
sg16
I200
sg17
g13
sg18
g13
sg19
g4105
sg21
g22
sbag7
(g8
g9
NtRp4216
(dp4217
g12
g49
sg14
S'Helvetica'
p4218
sg16
I700
sg17
g13
sg18
g13
sg19
g4106
sg21
g22
sbag7
(g8
g9
NtRp4219
(dp4220
g12
g49
sg14
S'Helvetica'
p4221
sg16
I200
sg17
g13
sg18
g13
sg19
g4107
sg21
g22
sbag7
(g8
g9
NtRp4222
(dp4223
g12
g49
sg14
S'ITC Avant Garde Gothic'
p4224
sg16
I400
sg17
g13
sg18
g13
sg19
g4108
sg21
g22
sbag7
(g8
g9
NtRp4225
(dp4226
g12
g13
sg14
S'Times'
p4227
sg16
I700
sg17
g13
sg18
g13
sg19
g4109
sg21
g22
sbag7
(g8
g9
NtRp4228
(dp4229
g12
g13
sg14
S'ITC Avant Garde Gothic'
p4230
sg16
I600
sg17
g13
sg18
g13
sg19
g4110
sg21
g22
sbag7
(g8
g9
NtRp4231
(dp4232
g12
g13
sg14
S'New Century Schoolbook'
p4233
sg16
I700
sg17
g13
sg18
g13
sg19
g4111
sg21
g22
sbag7
(g8
g9
NtRp4234
(dp4235
g12
g13
sg14
S'Courier'
p4236
sg16
I500
sg17
g13
sg18
g13
sg19
g4112
sg21
g22
sbag7
(g8
g9
NtRp4237
(dp4238
g12
g13
sg14
S'Palatino'
p4239
sg16
I700
sg17
g13
sg18
g13
sg19
g4113
sg21
g22
sbag7
(g8
g9
NtRp4240
(dp4241
g12
g49
sg14
S'Utopia'
p4242
sg16
I400
sg17
g13
sg18
g13
sg19
g4114
sg21
g22
sbag7
(g8
g9
NtRp4243
(dp4244
g12
g49
sg14
S'ITC Avant Garde Gothic'
p4245
sg16
I600
sg17
g13
sg18
g13
sg19
g4115
sg21
g22
sbag7
(g8
g9
NtRp4246
(dp4247
g12
g13
sg14
S'Courier'
p4248
sg16
I500
sg17
g13
sg18
g13
sg19
g4116
sg21
g22
sbag7
(g8
g9
NtRp4249
(dp4250
g12
g13
sg14
S'Symbol'
p4251
sg16
I500
sg17
g13
sg18
g13
sg19
g4117
sg21
g22
sbag7
(g8
g9
NtRp4252
(dp4253
g12
g49
sg14
S'Courier'
p4254
sg16
I700
sg17
g13
sg18
g13
sg19
g4118
sg21
g22
sbag7
(g8
g9
NtRp4255
(dp4256
g12
g49
sg14
S'Helvetica'
p4257
sg16
I700
sg17
g256
sg18
g13
sg19
g4119
sg21
g22
sbag7
(g8
g9
NtRp4258
(dp4259
g12
g13
sg14
S'Symbol'
p4260
sg16
I500
sg17
g13
sg18
g13
sg19
g4120
sg21
g22
sbag7
(g8
g9
NtRp4261
(dp4262
g12
g13
sg14
S'Helvetica'
p4263
sg16
I500
sg17
g13
sg18
g13
sg19
g4121
sg21
g22
sbag7
(g8
g9
NtRp4264
(dp4265
g12
g49
sg14
S'Computer Modern'
p4266
sg16
I500
sg17
g13
sg18
g13
sg19
g4122
sg21
g22
sbag7
(g8
g9
NtRp4267
(dp4268
g12
g13
sg14
S'Times'
p4269
sg16
I500
sg17
g13
sg18
g13
sg19
g4123
sg21
g22
sbag7
(g8
g9
NtRp4270
(dp4271
g12
g13
sg14
S'Helvetica'
p4272
sg16
I500
sg17
g13
sg18
g13
sg19
g4124
sg21
g22
sbag7
(g8
g9
NtRp4273
(dp4274
g12
g49
sg14
S'ITC Bookman'
p4275
sg16
I600
sg17
g13
sg18
g13
sg19
g4125
sg21
g22
sbag7
(g8
g9
NtRp4276
(dp4277
g12
g49
sg14
S'Times'
p4278
sg16
I700
sg17
g13
sg18
g13
sg19
g4126
sg21
g22
sbag7
(g8
g9
NtRp4279
(dp4280
g12
g13
sg14
S'Helvetica'
p4281
sg16
I700
sg17
g13
sg18
g13
sg19
g4127
sg21
g22
sbag7
(g8
g9
NtRp4282
(dp4283
g12
g49
sg14
S'New Century Schoolbook'
p4284
sg16
I700
sg17
g13
sg18
g13
sg19
g4128
sg21
g22
sbag7
(g8
g9
NtRp4285
(dp4286
g12
g13
sg14
S'Computer Modern'
p4287
sg16
I500
sg17
g13
sg18
g13
sg19
g4129
sg21
g22
sbag7
(g8
g9
NtRp4288
(dp4289
g12
g13
sg14
S'ITC Bookman'
p4290
sg16
I200
sg17
g13
sg18
g13
sg19
g4130
sg21
g22
sbag7
(g8
g9
NtRp4291
(dp4292
g12
g49
sg14
S'Computer Modern'
p4293
sg16
I500
sg17
g13
sg18
g13
sg19
g4131
sg21
g22
sbag7
(g8
g9
NtRp4294
(dp4295
g12
g13
sg14
S'New Century Schoolbook'
p4296
sg16
I500
sg17
g13
sg18
g13
sg19
g4132
sg21
g22
sbag7
(g8
g9
NtRp4297
(dp4298
g12
g13
sg14
S'ITC Bookman'
p4299
sg16
I600
sg17
g13
sg18
g13
sg19
g4133
sg21
g22
sbag7
(g8
g9
NtRp4300
(dp4301
g12
g49
sg14
S'New Century Schoolbook'
p4302
sg16
I500
sg17
g13
sg18
g13
sg19
g4134
sg21
g22
sbag7
(g8
g9
NtRp4303
(dp4304
g12
g13
sg14
S'Computer Modern'
p4305
sg16
I500
sg17
g13
sg18
g13
sg19
g4135
sg21
g22
sbag7
(g8
g9
NtRp4306
(dp4307
g12
g13
sg14
S'Times'
p4308
sg16
I700
sg17
g13
sg18
g13
sg19
g4136
sg21
g22
sbag7
(g8
g9
NtRp4309
(dp4310
g12
g49
sg14
S'Times'
p4311
sg16
I500
sg17
g13
sg18
g13
sg19
g4137
sg21
g22
sbag7
(g8
g9
NtRp4312
(dp4313
g12
g13
sg14
S'ZapfDingbats'
p4314
sg16
I500
sg17
g13
sg18
g13
sg19
g4138
sg21
g22
sbag7
(g8
g9
NtRp4315
(dp4316
g12
g13
sg14
S'Helvetica'
p4317
sg16
I700
sg17
g256
sg18
g13
sg19
g4139
sg21
g22
sbag7
(g8
g9
NtRp4318
(dp4319
g12
g13
sg14
S'ITC Zapf Dingbats'
p4320
sg16
I500
sg17
g13
sg18
g13
sg19
g4140
sg21
g22
sbag7
(g8
g9
NtRp4321
(dp4322
g12
g49
sg14
S'Times'
p4323
sg16
I700
sg17
g13
sg18
g13
sg19
g4141
sg21
g22
sbasb.